===============ETEK ASSEMBLER V1.1,  WRITTEN BY XIEKJ. 2010===================
LINE  ADDR    CODE       FLAG  INSTRUCTION
------------------------------------------------------------------------------
0001                       S    ;===================================
0002                       S    ; ET4207 PROGRAM
0003                       S    ;===================================
0004                       S    ; JIANGS
0005                       S    ; 2017.12.5
0006                       S    ; ÊÖ»úÒ£¿ØÆ÷
0007                       S    ;===================================
0008                       S    INCLUDE ET4007.INC
0009                       S    INCLUDE ET4207_INC.INC
0010                       S    
0011                       S    	ORG	00H
0012                       S    	START:
0013  0000    0000         S    	NOP
0014  0001    A8F7         S    	GOTO	MAIN
0015                       S    	ORG	06H
0016  0006    A67F         S    	GOTO 	INTERRUPT_06H
0017                       S    	ORG 	0CH
0018  000C    A61B         S    	GOTO	INTERRUPT_0CH
0019                       S    	ORG	012H
0020  0012    A67D         S    	GOTO	INTERRUPT_EXT
0021                       S    
0022                       S    	INCLUDE DELAY.ASM
 M    0013    8017         S    CALL      0017H
 M    0014    8017         S    CALL      0017H
 M    0015    8017         S    CALL      0017H
 M    0016    0003         S    RETURN
 M    0017    801B         S    CALL      001BH
 M    0018    801B         S    CALL      001BH
 M    0019    801B         S    CALL      001BH
 M    001A    801B         S    CALL      001BH
 M    001B    8033         S    CALL      0033H
 M    001C    8033         S    CALL      0033H
 M    001D    8033         S    CALL      0033H
 M    001E    8033         S    CALL      0033H
 M    001F    8033         S    CALL      0033H
 M    0020    8033         S    CALL      0033H
 M    0021    8033         S    CALL      0033H
 M    0022    8033         S    CALL      0033H
 M    0023    8033         S    CALL      0033H
 M    0024    8033         S    CALL      0033H
 M    0025    8033         S    CALL      0033H
 M    0026    8033         S    CALL      0033H
 M    0027    8033         S    CALL      0033H
 M    0028    8033         S    CALL      0033H
 M    0029    8033         S    CALL      0033H
 M    002A    8033         S    CALL      0033H
 M    002B    8033         S    CALL      0033H
 M    002C    8033         S    CALL      0033H
 M    002D    8033         S    CALL      0033H
 M    002E    8034         S    CALL      0034H
 M    002F    A040         S    GOTO      0040H
 M    0030    803E         S    CALL      003EH
 M    0031    803E         S    CALL      003EH
 M    0032    803E         S    CALL      003EH
 M    0033    803E         S    CALL      003EH
 M    0034    803E         S    CALL      003EH
 M    0035    803E         S    CALL      003EH
 M    0036    803E         S    CALL      003EH
 M    0037    803E         S    CALL      003EH
 M    0038    803E         S    CALL      003EH
 M    0039    803E         S    CALL      003EH
 M    003A    803E         S    CALL      003EH
 M    003B    803E         S    CALL      003EH
 M    003C    A040         S    GOTO      0040H
 M    003D    0000         S    NOP
 M    003E    0000         S    NOP
 M    003F    0000         S    NOP
 M    0040    0000         S    NOP
 M    0041    0000         S    NOP
 M    0042    0000         S    NOP
 M    0043    0000         S    NOP
 M    0044    0000         S    NOP
 M    0045    0000         S    NOP
 M    0046    0000         S    NOP
 M    0047    0000         S    NOP
 M    0048    0000         S    NOP
 M    0049    0000         S    NOP
 M    004A    0000         S    NOP
 M    004B    0000         S    NOP
 M    004C    0000         S    NOP
 M    004D    0000         S    NOP
 M    004E    0000         S    NOP
 M    004F    0000         S    NOP
 M    0050    0000         S    NOP
 M    0051    0000         S    NOP
 M    0052    0000         S    NOP
 M    0053    0000         S    NOP
 M    0054    0000         S    NOP
 M    0055    0000         S    NOP
 M    0056    0000         S    NOP
 M    0057    0000         S    NOP
 M    0058    0000         S    NOP
 M    0059    0000         S    NOP
 M    005A    0000         S    NOP
 M    005B    0000         S    NOP
 M    005C    0000         S    NOP
 M    005D    0000         S    NOP
 M    005E    0000         S    NOP
 M    005F    0000         S    NOP
 M    0060    0000         S    NOP
 M    0061    0000         S    NOP
 M    0062    0000         S    NOP
 M    0063    0000         S    NOP
 M    0064    0000         S    NOP
 M    0065    0000         S    NOP
 M    0066    0000         S    NOP
 M    0067    0000         S    NOP
 M    0068    0000         S    NOP
 M    0069    0000         S    NOP
 M    006A    0000         S    NOP
 M    006B    0000         S    NOP
 M    006C    0003         S    RETURN
 M    006D    2024         S    MOVFW     0024H
 M    006E    0008         S    ADDPCW
 M    006F    0000         S    NOP
 M    0070    0000         S    NOP
 M    0071    0000         S    NOP
 M    0072    0000         S    NOP
 M    0073    0000         S    NOP
 M    0074    0000         S    NOP
 M    0075    0000         S    NOP
 M    0076    0000         S    NOP
 M    0077    0000         S    NOP
 M    0078    0000         S    NOP
 M    0079    0000         S    NOP
 M    007A    0000         S    NOP
 M    007B    0000         S    NOP
 M    007C    0000         S    NOP
 M    007D    0000         S    NOP
 M    007E    0000         S    NOP
 M    007F    0000         S    NOP
 M    0080    0000         S    NOP
 M    0081    0000         S    NOP
 M    0082    0000         S    NOP
 M    0083    0000         S    NOP
 M    0084    0000         S    NOP
 M    0085    0000         S    NOP
 M    0086    0000         S    NOP
 M    0087    0000         S    NOP
 M    0088    0000         S    NOP
 M    0089    0000         S    NOP
 M    008A    0000         S    NOP
 M    008B    0000         S    NOP
 M    008C    0000         S    NOP
 M    008D    0000         S    NOP
 M    008E    0000         S    NOP
 M    008F    0000         S    NOP
 M    0090    0000         S    NOP
 M    0091    0000         S    NOP
 M    0092    0000         S    NOP
 M    0093    0000         S    NOP
 M    0094    0000         S    NOP
 M    0095    0000         S    NOP
 M    0096    0000         S    NOP
 M    0097    0000         S    NOP
 M    0098    0000         S    NOP
 M    0099    0000         S    NOP
 M    009A    0000         S    NOP
 M    009B    0000         S    NOP
 M    009C    0000         S    NOP
 M    009D    0000         S    NOP
 M    009E    0000         S    NOP
 M    009F    0000         S    NOP
 M    00A0    0000         S    NOP
 M    00A1    0000         S    NOP
 M    00A2    0000         S    NOP
 M    00A3    0000         S    NOP
 M    00A4    0000         S    NOP
 M    00A5    0000         S    NOP
 M    00A6    0000         S    NOP
 M    00A7    0000         S    NOP
 M    00A8    0000         S    NOP
 M    00A9    0000         S    NOP
 M    00AA    0000         S    NOP
 M    00AB    0000         S    NOP
 M    00AC    0000         S    NOP
 M    00AD    0000         S    NOP
 M    00AE    0000         S    NOP
 M    00AF    0000         S    NOP
 M    00B0    0000         S    NOP
 M    00B1    0000         S    NOP
 M    00B2    0000         S    NOP
 M    00B3    0000         S    NOP
 M    00B4    0000         S    NOP
 M    00B5    0000         S    NOP
 M    00B6    0000         S    NOP
 M    00B7    0000         S    NOP
 M    00B8    0000         S    NOP
 M    00B9    0000         S    NOP
 M    00BA    0000         S    NOP
 M    00BB    0000         S    NOP
 M    00BC    0000         S    NOP
 M    00BD    0000         S    NOP
 M    00BE    0000         S    NOP
 M    00BF    0000         S    NOP
 M    00C0    0000         S    NOP
 M    00C1    0000         S    NOP
 M    00C2    0000         S    NOP
 M    00C3    0000         S    NOP
 M    00C4    0000         S    NOP
 M    00C5    0000         S    NOP
 M    00C6    0000         S    NOP
 M    00C7    0000         S    NOP
 M    00C8    0000         S    NOP
 M    00C9    0000         S    NOP
 M    00CA    0000         S    NOP
 M    00CB    0000         S    NOP
 M    00CC    0000         S    NOP
 M    00CD    0000         S    NOP
 M    00CE    0000         S    NOP
 M    00CF    0000         S    NOP
 M    00D0    0000         S    NOP
 M    00D1    0000         S    NOP
 M    00D2    0000         S    NOP
 M    00D3    0000         S    NOP
 M    00D4    0000         S    NOP
 M    00D5    0000         S    NOP
 M    00D6    0000         S    NOP
 M    00D7    0000         S    NOP
 M    00D8    0000         S    NOP
 M    00D9    0000         S    NOP
 M    00DA    0000         S    NOP
 M    00DB    0000         S    NOP
 M    00DC    0000         S    NOP
 M    00DD    0000         S    NOP
 M    00DE    0000         S    NOP
 M    00DF    0000         S    NOP
 M    00E0    0000         S    NOP
 M    00E1    0000         S    NOP
 M    00E2    0000         S    NOP
 M    00E3    0000         S    NOP
 M    00E4    0000         S    NOP
 M    00E5    0000         S    NOP
 M    00E6    0000         S    NOP
 M    00E7    0000         S    NOP
 M    00E8    0000         S    NOP
 M    00E9    0000         S    NOP
 M    00EA    0000         S    NOP
 M    00EB    0000         S    NOP
 M    00EC    0000         S    NOP
 M    00ED    0000         S    NOP
 M    00EE    0000         S    NOP
 M    00EF    0003         S    RETURN
 M    00F0    0000         S    NOP
 M    00F1    0000         S    NOP
 M    00F2    0000         S    NOP
 M    00F3    0000         S    NOP
 M    00F4    0000         S    NOP
 M    00F5    0000         S    NOP
 M    00F6    0000         S    NOP
 M    00F7    0000         S    NOP
 M    00F8    0000         S    NOP
 M    00F9    0000         S    NOP
 M    00FA    0000         S    NOP
 M    00FB    0000         S    NOP
 M    00FC    0000         S    NOP
 M    00FD    0000         S    NOP
 M    00FE    0000         S    NOP
 M    00FF    0000         S    NOP
 M    0100    0000         S    NOP
 M    0101    0000         S    NOP
 M    0102    0000         S    NOP
 M    0103    0003         S    RETURN
 M    0104    0000         S    NOP
 M    0105    0000         S    NOP
 M    0106    0000         S    NOP
 M    0107    0000         S    NOP
 M    0108    0000         S    NOP
 M    0109    0003         S    RETURN
0023                       S    	INCLUDE	LEARN_RMT_ZIP.ASM
 M    010A    024A         S    CLRF      004AH
 M    010B    4102         S    SETDP     0002H
 M    010C    0222         S    CLRF      0022H
 M    010D    D81E         S    BSF       001EH  0004H
 M    010E    C61E         S    BCF       001EH  0003H
 M    010F    020B         S    CLRF      000BH
 M    0110    DE0B         S    BSF       000BH  0007H
 M    0111    0209         S    CLRF      0009H
 M    0112    020A         S    CLRF      000AH
 M    0113    C622         S    BCF       0022H  0003H
 M    0114    D422         S    BSF       0022H  0002H
 M    0115    C816         S    BCF       0016H  0004H
 M    0116    C416         S    BCF       0016H  0002H
 M    0117    4005         S    MOVLW     0005H
 M    0118    062F         S    ADDWF     002FH  0001H
 M    0119    4050         S    MOVLW     0050H
 M    011A    2232         S    MOVWF     0032H
 M    011B    4000         S    MOVLW     0100H
 M    011C    2233         S    MOVWF     0033H
 M    011D    40C0         S    MOVLW     00C0H
 M    011E    2234         S    MOVWF     0034H
 M    011F    0242         S    CLRF      0042H
 M    0120    0243         S    CLRF      0043H
 M    0121    C807         S    BCF       0007H  0004H
 M    0122    CE07         S    BCF       0007H  0007H
 M    0123    C80B         S    BCF       000BH  0004H
 M    0124    F221         S    BTFSS     0021H  0001H
 M    0125    A129         S    GOTO      0129H
 M    0126    4076         S    MOVLW     0076H
 M    0127    220E         S    MOVWF     000EH
 M    0128    A12B         S    GOTO      012BH
 M    0129    4026         S    MOVLW     0026H
 M    012A    220E         S    MOVWF     000EH
 M    012B    0000         S    NOP
 M    012C    0209         S    CLRF      0009H
 M    012D    020A         S    CLRF      000AH
 M    012E    CE0E         S    BCF       000EH  0007H
 M    012F    4006         S    MOVLW     0006H
 M    0130    2211         S    MOVWF     0011H
 M    0131    020F         S    CLRF      000FH
 M    0132    CE11         S    BCF       0011H  0007H
 M    0133    0206         S    CLRF      0006H
 M    0134    C807         S    BCF       0007H  0004H
 M    0135    D607         S    BSF       0007H  0003H
 M    0136    D407         S    BSF       0007H  0002H
 M    0137    D207         S    BSF       0007H  0001H
 M    0138    CE07         S    BCF       0007H  0007H
 M    0139    D60E         S    BSF       000EH  0003H
 M    013A    DA0E         S    BSF       000EH  0005H
 M    013B    4078         S    MOVLW     0078H
 M    013C    220F         S    MOVWF     000FH
 M    013D    C61D         S    BCF       001DH  0003H
 M    013E    0006         S    CLRWDT
 M    013F    E621         S    BTFSC     0021H  0003H
 M    0140    A27C         S    GOTO      027CH
 M    0141    F406         S    BTFSS     0006H  0002H
 M    0142    A13F         S    GOTO      013FH
 M    0143    D61D         S    BSF       001DH  0003H
 M    0144    0006         S    CLRWDT
 M    0145    200C         S    MOVFW     000CH
 M    0146    224F         S    MOVWF     004FH
 M    0147    200D         S    MOVFW     000DH
 M    0148    224E         S    MOVWF     004EH
 M    0149    0206         S    CLRF      0006H
 M    014A    D611         S    BSF       0011H  0003H
 M    014B    CE11         S    BCF       0011H  0007H
 M    014C    E606         S    BTFSC     0006H  0003H
 M    014D    A13E         S    GOTO      013EH
 M    014E    F406         S    BTFSS     0006H  0002H
 M    014F    A14C         S    GOTO      014CH
 M    0150    0206         S    CLRF      0006H
 M    0151    F406         S    BTFSS     0006H  0002H
 M    0152    A151         S    GOTO      0151H
 M    0153    0206         S    CLRF      0006H
 M    0154    F406         S    BTFSS     0006H  0002H
 M    0155    A154         S    GOTO      0154H
 M    0156    0206         S    CLRF      0006H
 M    0157    F406         S    BTFSS     0006H  0002H
 M    0158    A157         S    GOTO      0157H
 M    0159    204F         S    MOVFW     004FH
 M    015A    180C         S    SUBWF     000CH  0000H
 M    015B    224F         S    MOVWF     004FH
 M    015C    204E         S    MOVFW     004EH
 M    015D    380D         S    SUBWFC    000DH  0000H
 M    015E    224E         S    MOVWF     004EH
 M    015F    3E4E         S    RRF       004EH  0001H
 M    0160    3E4F         S    RRF       004FH  0001H
 M    0161    1C4F         S    COMF      004FH  0000H
 M    0162    220F         S    MOVWF     000FH
 M    0163    0206         S    CLRF      0006H
 M    0164    F221         S    BTFSS     0021H  0001H
 M    0165    A169         S    GOTO      0169H
 M    0166    4054         S    MOVLW     0054H
 M    0167    220E         S    MOVWF     000EH
 M    0168    A16B         S    GOTO      016BH
 M    0169    4004         S    MOVLW     0004H
 M    016A    220E         S    MOVWF     000EH
 M    016B    D611         S    BSF       0011H  0003H
 M    016C    D807         S    BSF       0007H  0004H
 M    016D    DE07         S    BSF       0007H  0007H
 M    016E    E422         S    BTFSC     0022H  0002H
 M    016F    A16E         S    GOTO      016EH
 M    0170    F422         S    BTFSS     0022H  0002H
 M    0171    A170         S    GOTO      0170H
 M    0172    E422         S    BTFSC     0022H  0002H
 M    0173    A172         S    GOTO      0172H
 M    0174    0235         S    CLRF      0035H
 M    0175    0A35         S    INCF      0035H  0001H
 M    0176    0238         S    CLRF      0038H
 M    0177    0239         S    CLRF      0039H
 M    0178    023A         S    CLRF      003AH
 M    0179    023B         S    CLRF      003BH
 M    017A    2033         S    MOVFW     0033H
 M    017B    2203         S    MOVWF     0003H
 M    017C    202C         S    MOVFW     002CH
 M    017D    2201         S    MOVWF     0001H
 M    017E    223C         S    MOVWF     003CH
 M    017F    0A03         S    INCF      0003H  0001H
 M    0180    202D         S    MOVFW     002DH
 M    0181    2201         S    MOVWF     0001H
 M    0182    223D         S    MOVWF     003DH
 M    0183    0A03         S    INCF      0003H  0001H
 M    0184    202A         S    MOVFW     002AH
 M    0185    2201         S    MOVWF     0001H
 M    0186    223E         S    MOVWF     003EH
 M    0187    0A03         S    INCF      0003H  0001H
 M    0188    202B         S    MOVFW     002BH
 M    0189    2201         S    MOVWF     0001H
 M    018A    223F         S    MOVWF     003FH
 M    018B    D204         S    BSF       0004H  0001H
 M    018C    3E45         S    RRF       0045H  0001H
 M    018D    F204         S    BTFSS     0004H  0001H
 M    018E    A191         S    GOTO      0191H
 M    018F    DE45         S    BSF       0045H  0007H
 M    0190    0A34         S    INCF      0034H  0001H
 M    0191    2034         S    MOVFW     0034H
 M    0192    2202         S    MOVWF     0002H
 M    0193    2045         S    MOVFW     0045H
 M    0194    2E00         S    IORWF     0000H  0001H
 M    0195    0E43         S    INCFSZ    0043H  0001H
 M    0196    A198         S    GOTO      0198H
 M    0197    0A42         S    INCF      0042H  0001H
 M    0198    E622         S    BTFSC     0022H  0003H
 M    0199    A221         S    GOTO      0221H
 M    019A    F422         S    BTFSS     0022H  0002H
 M    019B    A19A         S    GOTO      019AH
 M    019C    E622         S    BTFSC     0022H  0003H
 M    019D    A1A0         S    GOTO      01A0H
 M    019E    E422         S    BTFSC     0022H  0002H
 M    019F    A19E         S    GOTO      019EH
 M    01A0    2039         S    MOVFW     0039H
 M    01A1    182D         S    SUBWF     002DH  0000H
 M    01A2    2230         S    MOVWF     0030H
 M    01A3    2038         S    MOVFW     0038H
 M    01A4    382C         S    SUBWFC    002CH  0000H
 M    01A5    2231         S    MOVWF     0031H
 M    01A6    86C6         S    CALL      06C6H
 M    01A7    4003         S    MOVLW     0003H
 M    01A8    1830         S    SUBWF     0030H  0000H
 M    01A9    4000         S    MOVLW     0000H
 M    01AA    3831         S    SUBWFC    0031H  0000H
 M    01AB    E204         S    BTFSC     0004H  0001H
 M    01AC    A1C7         S    GOTO      01C7H
 M    01AD    203B         S    MOVFW     003BH
 M    01AE    182B         S    SUBWF     002BH  0000H
 M    01AF    2230         S    MOVWF     0030H
 M    01B0    203A         S    MOVFW     003AH
 M    01B1    382A         S    SUBWFC    002AH  0000H
 M    01B2    2231         S    MOVWF     0031H
 M    01B3    86C6         S    CALL      06C6H
 M    01B4    4032         S    MOVLW     0032H
 M    01B5    1830         S    SUBWF     0030H  0000H
 M    01B6    4000         S    MOVLW     0000H
 M    01B7    3831         S    SUBWFC    0031H  0000H
 M    01B8    E204         S    BTFSC     0004H  0001H
 M    01B9    A1C7         S    GOTO      01C7H
 M    01BA    C204         S    BCF       0004H  0001H
 M    01BB    3E45         S    RRF       0045H  0001H
 M    01BC    F204         S    BTFSS     0004H  0001H
 M    01BD    A1C0         S    GOTO      01C0H
 M    01BE    DE45         S    BSF       0045H  0007H
 M    01BF    0A34         S    INCF      0034H  0001H
 M    01C0    0E43         S    INCFSZ    0043H  0001H
 M    01C1    A1C3         S    GOTO      01C3H
 M    01C2    0A42         S    INCF      0042H  0001H
 M    01C3    0E35         S    INCFSZ    0035H  0001H
 M    01C4    A198         S    GOTO      0198H
 M    01C5    1235         S    DECF      0035H  0001H
 M    01C6    A1F1         S    GOTO      01F1H
 M    01C7    203D         S    MOVFW     003DH
 M    01C8    182D         S    SUBWF     002DH  0000H
 M    01C9    2230         S    MOVWF     0030H
 M    01CA    203C         S    MOVFW     003CH
 M    01CB    382C         S    SUBWFC    002CH  0000H
 M    01CC    2231         S    MOVWF     0031H
 M    01CD    86C6         S    CALL      06C6H
 M    01CE    4003         S    MOVLW     0003H
 M    01CF    1830         S    SUBWF     0030H  0000H
 M    01D0    4000         S    MOVLW     0000H
 M    01D1    3831         S    SUBWFC    0031H  0000H
 M    01D2    E204         S    BTFSC     0004H  0001H
 M    01D3    A1F1         S    GOTO      01F1H
 M    01D4    203F         S    MOVFW     003FH
 M    01D5    182B         S    SUBWF     002BH  0000H
 M    01D6    2230         S    MOVWF     0030H
 M    01D7    203E         S    MOVFW     003EH
 M    01D8    382A         S    SUBWFC    002AH  0000H
 M    01D9    2231         S    MOVWF     0031H
 M    01DA    86C6         S    CALL      06C6H
 M    01DB    4032         S    MOVLW     0032H
 M    01DC    1830         S    SUBWF     0030H  0000H
 M    01DD    4000         S    MOVLW     0000H
 M    01DE    3831         S    SUBWFC    0031H  0000H
 M    01DF    E204         S    BTFSC     0004H  0001H
 M    01E0    A1F1         S    GOTO      01F1H
 M    01E1    C204         S    BCF       0004H  0001H
 M    01E2    3E45         S    RRF       0045H  0001H
 M    01E3    F204         S    BTFSS     0004H  0001H
 M    01E4    A1E7         S    GOTO      01E7H
 M    01E5    DE45         S    BSF       0045H  0007H
 M    01E6    0A34         S    INCF      0034H  0001H
 M    01E7    2034         S    MOVFW     0034H
 M    01E8    2202         S    MOVWF     0002H
 M    01E9    2045         S    MOVFW     0045H
 M    01EA    2E00         S    IORWF     0000H  0001H
 M    01EB    0E43         S    INCFSZ    0043H  0001H
 M    01EC    A1EE         S    GOTO      01EEH
 M    01ED    0A42         S    INCF      0042H  0001H
 M    01EE    0E35         S    INCFSZ    0035H  0001H
 M    01EF    A198         S    GOTO      0198H
 M    01F0    1235         S    DECF      0035H  0001H
 M    01F1    2032         S    MOVFW     0032H
 M    01F2    2202         S    MOVWF     0002H
 M    01F3    2035         S    MOVFW     0035H
 M    01F4    2200         S    MOVWF     0000H
 M    01F5    0A32         S    INCF      0032H  0001H
 M    01F6    0235         S    CLRF      0035H
 M    01F7    0A35         S    INCF      0035H  0001H
 M    01F8    4004         S    MOVLW     0004H
 M    01F9    0633         S    ADDWF     0033H  0001H
 M    01FA    203C         S    MOVFW     003CH
 M    01FB    2238         S    MOVWF     0038H
 M    01FC    203D         S    MOVFW     003DH
 M    01FD    2239         S    MOVWF     0039H
 M    01FE    203E         S    MOVFW     003EH
 M    01FF    223A         S    MOVWF     003AH
 M    0200    203F         S    MOVFW     003FH
 M    0201    223B         S    MOVWF     003BH
 M    0202    2033         S    MOVFW     0033H
 M    0203    2203         S    MOVWF     0003H
 M    0204    202C         S    MOVFW     002CH
 M    0205    2201         S    MOVWF     0001H
 M    0206    223C         S    MOVWF     003CH
 M    0207    0A03         S    INCF      0003H  0001H
 M    0208    202D         S    MOVFW     002DH
 M    0209    2201         S    MOVWF     0001H
 M    020A    223D         S    MOVWF     003DH
 M    020B    0A03         S    INCF      0003H  0001H
 M    020C    202A         S    MOVFW     002AH
 M    020D    2201         S    MOVWF     0001H
 M    020E    223E         S    MOVWF     003EH
 M    020F    0A03         S    INCF      0003H  0001H
 M    0210    202B         S    MOVFW     002BH
 M    0211    2201         S    MOVWF     0001H
 M    0212    223F         S    MOVWF     003FH
 M    0213    C204         S    BCF       0004H  0001H
 M    0214    3E45         S    RRF       0045H  0001H
 M    0215    F204         S    BTFSS     0004H  0001H
 M    0216    A219         S    GOTO      0219H
 M    0217    DE45         S    BSF       0045H  0007H
 M    0218    0A34         S    INCF      0034H  0001H
 M    0219    2034         S    MOVFW     0034H
 M    021A    2202         S    MOVWF     0002H
 M    021B    2045         S    MOVFW     0045H
 M    021C    2E00         S    IORWF     0000H  0001H
 M    021D    0E43         S    INCFSZ    0043H  0001H
 M    021E    A220         S    GOTO      0220H
 M    021F    0A42         S    INCF      0042H  0001H
 M    0220    A198         S    GOTO      0198H
 M    0221    2032         S    MOVFW     0032H
 M    0222    2202         S    MOVWF     0002H
 M    0223    2035         S    MOVFW     0035H
 M    0224    2200         S    MOVWF     0000H
 M    0225    0A32         S    INCF      0032H  0001H
 M    0226    CE07         S    BCF       0007H  0007H
 M    0227    C807         S    BCF       0007H  0004H
 M    0228    C407         S    BCF       0007H  0002H
 M    0229    C60E         S    BCF       000EH  0003H
 M    022A    0000         S    NOP
 M    022B    3E4E         S    RRF       004EH  0001H
 M    022C    3E4F         S    RRF       004FH  0001H
 M    022D    4050         S    MOVLW     0050H
 M    022E    1832         S    SUBWF     0032H  0000H
 M    022F    224C         S    MOVWF     004CH
 M    0230    4004         S    MOVLW     0004H
 M    0231    0633         S    ADDWF     0033H  0001H
 M    0232    4000         S    MOVLW     0100H
 M    0233    1833         S    SUBWF     0033H  0000H
 M    0234    224D         S    MOVWF     004DH
 M    0235    0A34         S    INCF      0034H  0001H
 M    0236    40C0         S    MOVLW     00C0H
 M    0237    1834         S    SUBWF     0034H  0000H
 M    0238    224E         S    MOVWF     004EH
 M    0239    4100         S    SETDP     0000H
 M    023A    4050         S    MOVLW     0050H
 M    023B    044C         S    ADDWF     004CH  0000H
 M    023C    F204         S    BTFSS     0004H  0001H
 M    023D    A23F         S    GOTO      023FH
 M    023E    4101         S    SETDP     0001H
 M    023F    2202         S    MOVWF     0002H
 M    0240    204E         S    MOVFW     004EH
 M    0241    2234         S    MOVWF     0034H
 M    0242    40C0         S    MOVLW     00C0H
 M    0243    2203         S    MOVWF     0003H
 M    0244    2001         S    MOVFW     0001H
 M    0245    2200         S    MOVWF     0000H
 M    0246    0A03         S    INCF      0003H  0001H
 M    0247    0A02         S    INCF      0002H  0001H
 M    0248    1634         S    DECFSZ    0034H  0001H
 M    0249    A244         S    GOTO      0244H
 M    024A    204D         S    MOVFW     004DH
 M    024B    2233         S    MOVWF     0033H
 M    024C    40C0         S    MOVLW     00C0H
 M    024D    4102         S    SETDP     0002H
 M    024E    4000         S    MOVLW     0100H
 M    024F    2203         S    MOVWF     0003H
 M    0250    2001         S    MOVFW     0001H
 M    0251    2200         S    MOVWF     0000H
 M    0252    0A03         S    INCF      0003H  0001H
 M    0253    0E02         S    INCFSZ    0002H  0001H
 M    0254    A256         S    GOTO      0256H
 M    0255    4103         S    SETDP     0003H
 M    0256    1633         S    DECFSZ    0033H  0001H
 M    0257    A250         S    GOTO      0250H
 M    0258    0248         S    CLRF      0048H
 M    0259    0249         S    CLRF      0049H
 M    025A    204C         S    MOVFW     004CH
 M    025B    0649         S    ADDWF     0049H  0001H
 M    025C    F204         S    BTFSS     0004H  0001H
 M    025D    A25F         S    GOTO      025FH
 M    025E    0A48         S    INCF      0048H  0001H
 M    025F    204E         S    MOVFW     004EH
 M    0260    0649         S    ADDWF     0049H  0001H
 M    0261    F204         S    BTFSS     0004H  0001H
 M    0262    A264         S    GOTO      0264H
 M    0263    0A48         S    INCF      0048H  0001H
 M    0264    204D         S    MOVFW     004DH
 M    0265    0649         S    ADDWF     0049H  0001H
 M    0266    F204         S    BTFSS     0004H  0001H
 M    0267    A269         S    GOTO      0269H
 M    0268    0A48         S    INCF      0048H  0001H
 M    0269    2048         S    MOVFW     0048H
 M    026A    2226         S    MOVWF     0026H
 M    026B    2049         S    MOVFW     0049H
 M    026C    2227         S    MOVWF     0027H
 M    026D    4100         S    SETDP     0000H
 M    026E    4050         S    MOVLW     0050H
 M    026F    2202         S    MOVWF     0002H
 M    0270    86A3         S    CALL      06A3H
 M    0271    2028         S    MOVFW     0028H
 M    0272    224B         S    MOVWF     004BH
 M    0273    4031         S    MOVLW     0031H
 M    0274    2240         S    MOVWF     0040H
 M    0275    A27F         S    GOTO      027FH
 M    0276    D44A         S    BSF       004AH  0002H
 M    0277    4100         S    SETDP     0000H
 M    0278    A8FF         S    GOTO      08FFH
 M    0279    D24A         S    BSF       004AH  0001H
 M    027A    4100         S    SETDP     0000H
 M    027B    A8FF         S    GOTO      08FFH
 M    027C    D04A         S    BSF       004AH  0000H
 M    027D    4100         S    SETDP     0000H
 M    027E    A8FF         S    GOTO      08FFH
 M    027F    4100         S    SETDP     0000H
 M    0280    A8FF         S    GOTO      08FFH
0024                       S    	INCLUDE	LEARN_RMT_NORMAL.ASM
 M    0281    024A         S    CLRF      004AH
 M    0282    4100         S    SETDP     0000H
 M    0283    0222         S    CLRF      0022H
 M    0284    D81E         S    BSF       001EH  0004H
 M    0285    C61E         S    BCF       001EH  0003H
 M    0286    020B         S    CLRF      000BH
 M    0287    DE0B         S    BSF       000BH  0007H
 M    0288    0209         S    CLRF      0009H
 M    0289    020A         S    CLRF      000AH
 M    028A    C622         S    BCF       0022H  0003H
 M    028B    D422         S    BSF       0022H  0002H
 M    028C    C416         S    BCF       0016H  0002H
 M    028D    4005         S    MOVLW     0005H
 M    028E    222F         S    MOVWF     002FH
 M    028F    4050         S    MOVLW     0050H
 M    0290    2202         S    MOVWF     0002H
 M    0291    0243         S    CLRF      0043H
 M    0292    C807         S    BCF       0007H  0004H
 M    0293    CE07         S    BCF       0007H  0007H
 M    0294    C80B         S    BCF       000BH  0004H
 M    0295    F221         S    BTFSS     0021H  0001H
 M    0296    A29A         S    GOTO      029AH
 M    0297    4076         S    MOVLW     0076H
 M    0298    220E         S    MOVWF     000EH
 M    0299    A29C         S    GOTO      029CH
 M    029A    4026         S    MOVLW     0026H
 M    029B    220E         S    MOVWF     000EH
 M    029C    0000         S    NOP
 M    029D    0209         S    CLRF      0009H
 M    029E    020A         S    CLRF      000AH
 M    029F    CE0E         S    BCF       000EH  0007H
 M    02A0    4006         S    MOVLW     0006H
 M    02A1    2211         S    MOVWF     0011H
 M    02A2    020F         S    CLRF      000FH
 M    02A3    CE11         S    BCF       0011H  0007H
 M    02A4    0206         S    CLRF      0006H
 M    02A5    C807         S    BCF       0007H  0004H
 M    02A6    D607         S    BSF       0007H  0003H
 M    02A7    D407         S    BSF       0007H  0002H
 M    02A8    D207         S    BSF       0007H  0001H
 M    02A9    CE07         S    BCF       0007H  0007H
 M    02AA    D60E         S    BSF       000EH  0003H
 M    02AB    DA0E         S    BSF       000EH  0005H
 M    02AC    4078         S    MOVLW     0078H
 M    02AD    220F         S    MOVWF     000FH
 M    02AE    C61D         S    BCF       001DH  0003H
 M    02AF    E621         S    BTFSC     0021H  0003H
 M    02B0    A27C         S    GOTO      027CH
 M    02B1    F406         S    BTFSS     0006H  0002H
 M    02B2    A2AF         S    GOTO      02AFH
 M    02B3    D61D         S    BSF       001DH  0003H
 M    02B4    0006         S    CLRWDT
 M    02B5    200C         S    MOVFW     000CH
 M    02B6    224F         S    MOVWF     004FH
 M    02B7    200D         S    MOVFW     000DH
 M    02B8    224E         S    MOVWF     004EH
 M    02B9    0206         S    CLRF      0006H
 M    02BA    D611         S    BSF       0011H  0003H
 M    02BB    CE11         S    BCF       0011H  0007H
 M    02BC    E606         S    BTFSC     0006H  0003H
 M    02BD    A2AE         S    GOTO      02AEH
 M    02BE    F406         S    BTFSS     0006H  0002H
 M    02BF    A2BC         S    GOTO      02BCH
 M    02C0    0206         S    CLRF      0006H
 M    02C1    F406         S    BTFSS     0006H  0002H
 M    02C2    A2C1         S    GOTO      02C1H
 M    02C3    0206         S    CLRF      0006H
 M    02C4    F406         S    BTFSS     0006H  0002H
 M    02C5    A2C4         S    GOTO      02C4H
 M    02C6    0206         S    CLRF      0006H
 M    02C7    F406         S    BTFSS     0006H  0002H
 M    02C8    A2C7         S    GOTO      02C7H
 M    02C9    204F         S    MOVFW     004FH
 M    02CA    180C         S    SUBWF     000CH  0000H
 M    02CB    224F         S    MOVWF     004FH
 M    02CC    204E         S    MOVFW     004EH
 M    02CD    380D         S    SUBWFC    000DH  0000H
 M    02CE    224E         S    MOVWF     004EH
 M    02CF    3E4E         S    RRF       004EH  0001H
 M    02D0    3E4F         S    RRF       004FH  0001H
 M    02D1    1C4F         S    COMF      004FH  0000H
 M    02D2    220F         S    MOVWF     000FH
 M    02D3    0206         S    CLRF      0006H
 M    02D4    F221         S    BTFSS     0021H  0001H
 M    02D5    A2D9         S    GOTO      02D9H
 M    02D6    4054         S    MOVLW     0054H
 M    02D7    220E         S    MOVWF     000EH
 M    02D8    A2DB         S    GOTO      02DBH
 M    02D9    4004         S    MOVLW     0004H
 M    02DA    220E         S    MOVWF     000EH
 M    02DB    D611         S    BSF       0011H  0003H
 M    02DC    D807         S    BSF       0007H  0004H
 M    02DD    DE07         S    BSF       0007H  0007H
 M    02DE    E422         S    BTFSC     0022H  0002H
 M    02DF    A2DE         S    GOTO      02DEH
 M    02E0    F422         S    BTFSS     0022H  0002H
 M    02E1    A2E0         S    GOTO      02E0H
 M    02E2    E422         S    BTFSC     0022H  0002H
 M    02E3    A2E2         S    GOTO      02E2H
 M    02E4    202C         S    MOVFW     002CH
 M    02E5    2200         S    MOVWF     0000H
 M    02E6    0A49         S    INCF      0049H  0001H
 M    02E7    0A02         S    INCF      0002H  0001H
 M    02E8    202D         S    MOVFW     002DH
 M    02E9    2200         S    MOVWF     0000H
 M    02EA    0A49         S    INCF      0049H  0001H
 M    02EB    0A02         S    INCF      0002H  0001H
 M    02EC    202A         S    MOVFW     002AH
 M    02ED    2200         S    MOVWF     0000H
 M    02EE    0A49         S    INCF      0049H  0001H
 M    02EF    0A02         S    INCF      0002H  0001H
 M    02F0    202B         S    MOVFW     002BH
 M    02F1    2200         S    MOVWF     0000H
 M    02F2    0A49         S    INCF      0049H  0001H
 M    02F3    0A02         S    INCF      0002H  0001H
 M    02F4    0A43         S    INCF      0043H  0001H
 M    02F5    E622         S    BTFSC     0022H  0003H
 M    02F6    A320         S    GOTO      0320H
 M    02F7    F422         S    BTFSS     0022H  0002H
 M    02F8    A2F7         S    GOTO      02F7H
 M    02F9    E622         S    BTFSC     0022H  0003H
 M    02FA    A2FD         S    GOTO      02FDH
 M    02FB    E422         S    BTFSC     0022H  0002H
 M    02FC    A2FB         S    GOTO      02FBH
 M    02FD    202C         S    MOVFW     002CH
 M    02FE    2200         S    MOVWF     0000H
 M    02FF    0A49         S    INCF      0049H  0001H
 M    0300    0E02         S    INCFSZ    0002H  0001H
 M    0301    A304         S    GOTO      0304H
 M    0302    4101         S    SETDP     0001H
 M    0303    0A48         S    INCF      0048H  0001H
 M    0304    202D         S    MOVFW     002DH
 M    0305    2200         S    MOVWF     0000H
 M    0306    0A49         S    INCF      0049H  0001H
 M    0307    0E02         S    INCFSZ    0002H  0001H
 M    0308    A30B         S    GOTO      030BH
 M    0309    4101         S    SETDP     0001H
 M    030A    0A48         S    INCF      0048H  0001H
 M    030B    202A         S    MOVFW     002AH
 M    030C    2200         S    MOVWF     0000H
 M    030D    0A49         S    INCF      0049H  0001H
 M    030E    0E02         S    INCFSZ    0002H  0001H
 M    030F    A312         S    GOTO      0312H
 M    0310    4101         S    SETDP     0001H
 M    0311    0A48         S    INCF      0048H  0001H
 M    0312    202B         S    MOVFW     002BH
 M    0313    2200         S    MOVWF     0000H
 M    0314    0A49         S    INCF      0049H  0001H
 M    0315    0E02         S    INCFSZ    0002H  0001H
 M    0316    A319         S    GOTO      0319H
 M    0317    4101         S    SETDP     0001H
 M    0318    0A48         S    INCF      0048H  0001H
 M    0319    0A43         S    INCF      0043H  0001H
 M    031A    406A         S    MOVLW     006AH
 M    031B    1843         S    SUBWF     0043H  0000H
 M    031C    E204         S    BTFSC     0004H  0001H
 M    031D    A31F         S    GOTO      031FH
 M    031E    A2F5         S    GOTO      02F5H
 M    031F    D64A         S    BSF       004AH  0003H
 M    0320    CE07         S    BCF       0007H  0007H
 M    0321    C807         S    BCF       0007H  0004H
 M    0322    C407         S    BCF       0007H  0002H
 M    0323    C60E         S    BCF       000EH  0003H
 M    0324    0000         S    NOP
 M    0325    3E4E         S    RRF       004EH  0001H
 M    0326    3E4F         S    RRF       004FH  0001H
 M    0327    2043         S    MOVFW     0043H
 M    0328    224E         S    MOVWF     004EH
 M    0329    2048         S    MOVFW     0048H
 M    032A    2226         S    MOVWF     0026H
 M    032B    2049         S    MOVFW     0049H
 M    032C    2227         S    MOVWF     0027H
 M    032D    4100         S    SETDP     0000H
 M    032E    4050         S    MOVLW     0050H
 M    032F    2202         S    MOVWF     0002H
 M    0330    86A3         S    CALL      06A3H
 M    0331    2028         S    MOVFW     0028H
 M    0332    224B         S    MOVWF     004BH
 M    0333    4030         S    MOVLW     0030H
 M    0334    2240         S    MOVWF     0040H
 M    0335    D416         S    BSF       0016H  0002H
 M    0336    A27F         S    GOTO      027FH
0025                       S    	INCLUDE	LEARN_RMT_ZIP2.ASM
 M    0337    024A         S    CLRF      004AH
 M    0338    4102         S    SETDP     0002H
 M    0339    0222         S    CLRF      0022H
 M    033A    D81E         S    BSF       001EH  0004H
 M    033B    C61E         S    BCF       001EH  0003H
 M    033C    020B         S    CLRF      000BH
 M    033D    DE0B         S    BSF       000BH  0007H
 M    033E    0209         S    CLRF      0009H
 M    033F    020A         S    CLRF      000AH
 M    0340    C622         S    BCF       0022H  0003H
 M    0341    D422         S    BSF       0022H  0002H
 M    0342    4005         S    MOVLW     0005H
 M    0343    062F         S    ADDWF     002FH  0001H
 M    0344    4050         S    MOVLW     0050H
 M    0345    2233         S    MOVWF     0033H
 M    0346    4000         S    MOVLW     0100H
 M    0347    2234         S    MOVWF     0034H
 M    0348    0243         S    CLRF      0043H
 M    0349    0242         S    CLRF      0042H
 M    034A    0246         S    CLRF      0046H
 M    034B    C816         S    BCF       0016H  0004H
 M    034C    C807         S    BCF       0007H  0004H
 M    034D    CE07         S    BCF       0007H  0007H
 M    034E    C80B         S    BCF       000BH  0004H
 M    034F    F221         S    BTFSS     0021H  0001H
 M    0350    A354         S    GOTO      0354H
 M    0351    4076         S    MOVLW     0076H
 M    0352    220E         S    MOVWF     000EH
 M    0353    A356         S    GOTO      0356H
 M    0354    4026         S    MOVLW     0026H
 M    0355    220E         S    MOVWF     000EH
 M    0356    0000         S    NOP
 M    0357    0209         S    CLRF      0009H
 M    0358    020A         S    CLRF      000AH
 M    0359    CE0E         S    BCF       000EH  0007H
 M    035A    4006         S    MOVLW     0006H
 M    035B    2211         S    MOVWF     0011H
 M    035C    020F         S    CLRF      000FH
 M    035D    CE11         S    BCF       0011H  0007H
 M    035E    0206         S    CLRF      0006H
 M    035F    C807         S    BCF       0007H  0004H
 M    0360    D607         S    BSF       0007H  0003H
 M    0361    D407         S    BSF       0007H  0002H
 M    0362    D207         S    BSF       0007H  0001H
 M    0363    CE07         S    BCF       0007H  0007H
 M    0364    D60E         S    BSF       000EH  0003H
 M    0365    DA0E         S    BSF       000EH  0005H
 M    0366    4078         S    MOVLW     0078H
 M    0367    220F         S    MOVWF     000FH
 M    0368    C61D         S    BCF       001DH  0003H
 M    0369    0006         S    CLRWDT
 M    036A    E621         S    BTFSC     0021H  0003H
 M    036B    A451         S    GOTO      0451H
 M    036C    F406         S    BTFSS     0006H  0002H
 M    036D    A36A         S    GOTO      036AH
 M    036E    D61D         S    BSF       001DH  0003H
 M    036F    0006         S    CLRWDT
 M    0370    200C         S    MOVFW     000CH
 M    0371    224F         S    MOVWF     004FH
 M    0372    200D         S    MOVFW     000DH
 M    0373    224E         S    MOVWF     004EH
 M    0374    0206         S    CLRF      0006H
 M    0375    D611         S    BSF       0011H  0003H
 M    0376    CE11         S    BCF       0011H  0007H
 M    0377    E606         S    BTFSC     0006H  0003H
 M    0378    A369         S    GOTO      0369H
 M    0379    F406         S    BTFSS     0006H  0002H
 M    037A    A377         S    GOTO      0377H
 M    037B    0206         S    CLRF      0006H
 M    037C    F406         S    BTFSS     0006H  0002H
 M    037D    A37C         S    GOTO      037CH
 M    037E    0206         S    CLRF      0006H
 M    037F    F406         S    BTFSS     0006H  0002H
 M    0380    A37F         S    GOTO      037FH
 M    0381    0206         S    CLRF      0006H
 M    0382    F406         S    BTFSS     0006H  0002H
 M    0383    A382         S    GOTO      0382H
 M    0384    204F         S    MOVFW     004FH
 M    0385    180C         S    SUBWF     000CH  0000H
 M    0386    224F         S    MOVWF     004FH
 M    0387    204E         S    MOVFW     004EH
 M    0388    380D         S    SUBWFC    000DH  0000H
 M    0389    224E         S    MOVWF     004EH
 M    038A    3E4E         S    RRF       004EH  0001H
 M    038B    3E4F         S    RRF       004FH  0001H
 M    038C    1C4F         S    COMF      004FH  0000H
 M    038D    220F         S    MOVWF     000FH
 M    038E    0206         S    CLRF      0006H
 M    038F    F221         S    BTFSS     0021H  0001H
 M    0390    A394         S    GOTO      0394H
 M    0391    4054         S    MOVLW     0054H
 M    0392    220E         S    MOVWF     000EH
 M    0393    A396         S    GOTO      0396H
 M    0394    4004         S    MOVLW     0004H
 M    0395    220E         S    MOVWF     000EH
 M    0396    D611         S    BSF       0011H  0003H
 M    0397    D807         S    BSF       0007H  0004H
 M    0398    DE07         S    BSF       0007H  0007H
 M    0399    E422         S    BTFSC     0022H  0002H
 M    039A    A399         S    GOTO      0399H
 M    039B    F422         S    BTFSS     0022H  0002H
 M    039C    A39B         S    GOTO      039BH
 M    039D    E422         S    BTFSC     0022H  0002H
 M    039E    A39D         S    GOTO      039DH
 M    039F    A3F7         S    GOTO      03F7H
 M    03A0    E622         S    BTFSC     0022H  0003H
 M    03A1    A418         S    GOTO      0418H
 M    03A2    F422         S    BTFSS     0022H  0002H
 M    03A3    A3A2         S    GOTO      03A2H
 M    03A4    E622         S    BTFSC     0022H  0003H
 M    03A5    A3DC         S    GOTO      03DCH
 M    03A6    E422         S    BTFSC     0022H  0002H
 M    03A7    A3A6         S    GOTO      03A6H
 M    03A8    A3DC         S    GOTO      03DCH
 M    03A9    2039         S    MOVFW     0039H
 M    03AA    182D         S    SUBWF     002DH  0000H
 M    03AB    2230         S    MOVWF     0030H
 M    03AC    2038         S    MOVFW     0038H
 M    03AD    382C         S    SUBWFC    002CH  0000H
 M    03AE    2231         S    MOVWF     0031H
 M    03AF    86C6         S    CALL      06C6H
 M    03B0    4003         S    MOVLW     0003H
 M    03B1    1830         S    SUBWF     0030H  0000H
 M    03B2    4000         S    MOVLW     0000H
 M    03B3    3831         S    SUBWFC    0031H  0000H
 M    03B4    E204         S    BTFSC     0004H  0001H
 M    03B5    A3DE         S    GOTO      03DEH
 M    03B6    203B         S    MOVFW     003BH
 M    03B7    182B         S    SUBWF     002BH  0000H
 M    03B8    2230         S    MOVWF     0030H
 M    03B9    203A         S    MOVFW     003AH
 M    03BA    382A         S    SUBWFC    002AH  0000H
 M    03BB    2231         S    MOVWF     0031H
 M    03BC    86C6         S    CALL      06C6H
 M    03BD    4032         S    MOVLW     0032H
 M    03BE    1830         S    SUBWF     0030H  0000H
 M    03BF    4000         S    MOVLW     0000H
 M    03C0    3831         S    SUBWFC    0031H  0000H
 M    03C1    E204         S    BTFSC     0004H  0001H
 M    03C2    A3DE         S    GOTO      03DEH
 M    03C3    EE22         S    BTFSC     0022H  0007H
 M    03C4    A3CE         S    GOTO      03CEH
 M    03C5    2034         S    MOVFW     0034H
 M    03C6    2203         S    MOVWF     0003H
 M    03C7    4C45         S    SWAPF     0045H  0000H
 M    03C8    2201         S    MOVWF     0001H
 M    03C9    DE22         S    BSF       0022H  0007H
 M    03CA    0E43         S    INCFSZ    0043H  0001H
 M    03CB    A3CD         S    GOTO      03CDH
 M    03CC    0A42         S    INCF      0042H  0001H
 M    03CD    A3A0         S    GOTO      03A0H
 M    03CE    CE22         S    BCF       0022H  0007H
 M    03CF    2034         S    MOVFW     0034H
 M    03D0    2203         S    MOVWF     0003H
 M    03D1    2045         S    MOVFW     0045H
 M    03D2    2E01         S    IORWF     0001H  0001H
 M    03D3    0A34         S    INCF      0034H  0001H
 M    03D4    40F8         S    MOVLW     00F8H
 M    03D5    1834         S    SUBWF     0034H  0000H
 M    03D6    E204         S    BTFSC     0004H  0001H
 M    03D7    A414         S    GOTO      0414H
 M    03D8    0E43         S    INCFSZ    0043H  0001H
 M    03D9    A3DB         S    GOTO      03DBH
 M    03DA    0A42         S    INCF      0042H  0001H
 M    03DB    A3A0         S    GOTO      03A0H
 M    03DC    0245         S    CLRF      0045H
 M    03DD    A3DF         S    GOTO      03DFH
 M    03DE    0A45         S    INCF      0045H  0001H
 M    03DF    2045         S    MOVFW     0045H
 M    03E0    1846         S    SUBWF     0046H  0000H
 M    03E1    E004         S    BTFSC     0004H  0000H
 M    03E2    A3F7         S    GOTO      03F7H
 M    03E3    2045         S    MOVFW     0045H
 M    03E4    2233         S    MOVWF     0033H
 M    03E5    C204         S    BCF       0004H  0001H
 M    03E6    3633         S    RLF       0033H  0001H
 M    03E7    C204         S    BCF       0004H  0001H
 M    03E8    3433         S    RLF       0033H  0000H
 M    03E9    4450         S    ADDLW     0050H
 M    03EA    2202         S    MOVWF     0002H
 M    03EB    2000         S    MOVFW     0000H
 M    03EC    2238         S    MOVWF     0038H
 M    03ED    0A02         S    INCF      0002H  0001H
 M    03EE    2000         S    MOVFW     0000H
 M    03EF    2239         S    MOVWF     0039H
 M    03F0    0A02         S    INCF      0002H  0001H
 M    03F1    2000         S    MOVFW     0000H
 M    03F2    223A         S    MOVWF     003AH
 M    03F3    0A02         S    INCF      0002H  0001H
 M    03F4    2000         S    MOVFW     0000H
 M    03F5    223B         S    MOVWF     003BH
 M    03F6    A3A9         S    GOTO      03A9H
 M    03F7    2046         S    MOVFW     0046H
 M    03F8    2233         S    MOVWF     0033H
 M    03F9    C204         S    BCF       0004H  0001H
 M    03FA    3633         S    RLF       0033H  0001H
 M    03FB    C204         S    BCF       0004H  0001H
 M    03FC    3433         S    RLF       0033H  0000H
 M    03FD    4450         S    ADDLW     0050H
 M    03FE    2202         S    MOVWF     0002H
 M    03FF    202C         S    MOVFW     002CH
 M    0400    2200         S    MOVWF     0000H
 M    0401    2238         S    MOVWF     0038H
 M    0402    0A02         S    INCF      0002H  0001H
 M    0403    202D         S    MOVFW     002DH
 M    0404    2200         S    MOVWF     0000H
 M    0405    2239         S    MOVWF     0039H
 M    0406    0A02         S    INCF      0002H  0001H
 M    0407    202A         S    MOVFW     002AH
 M    0408    2200         S    MOVWF     0000H
 M    0409    223A         S    MOVWF     003AH
 M    040A    0A02         S    INCF      0002H  0001H
 M    040B    202B         S    MOVFW     002BH
 M    040C    2200         S    MOVWF     0000H
 M    040D    223B         S    MOVWF     003BH
 M    040E    0A46         S    INCF      0046H  0001H
 M    040F    4010         S    MOVLW     0010H
 M    0410    1846         S    SUBWF     0046H  0000H
 M    0411    E204         S    BTFSC     0004H  0001H
 M    0412    A416         S    GOTO      0416H
 M    0413    A3C3         S    GOTO      03C3H
 M    0414    D44A         S    BSF       004AH  0002H
 M    0415    A418         S    GOTO      0418H
 M    0416    D84A         S    BSF       004AH  0004H
 M    0417    A418         S    GOTO      0418H
 M    0418    CE07         S    BCF       0007H  0007H
 M    0419    C807         S    BCF       0007H  0004H
 M    041A    C407         S    BCF       0007H  0002H
 M    041B    C60E         S    BCF       000EH  0003H
 M    041C    0000         S    NOP
 M    041D    3E4E         S    RRF       004EH  0001H
 M    041E    3E4F         S    RRF       004FH  0001H
 M    041F    0803         S    INCF      0003H  0000H
 M    0420    2234         S    MOVWF     0034H
 M    0421    2249         S    MOVWF     0049H
 M    0422    2046         S    MOVFW     0046H
 M    0423    2233         S    MOVWF     0033H
 M    0424    224D         S    MOVWF     004DH
 M    0425    C204         S    BCF       0004H  0001H
 M    0426    3633         S    RLF       0033H  0001H
 M    0427    3633         S    RLF       0033H  0001H
 M    0428    4102         S    SETDP     0002H
 M    0429    4050         S    MOVLW     0050H
 M    042A    0433         S    ADDWF     0033H  0000H
 M    042B    2202         S    MOVWF     0002H
 M    042C    204D         S    MOVFW     004DH
 M    042D    2233         S    MOVWF     0033H
 M    042E    4000         S    MOVLW     0100H
 M    042F    2203         S    MOVWF     0003H
 M    0430    2001         S    MOVFW     0001H
 M    0431    2200         S    MOVWF     0000H
 M    0432    0A03         S    INCF      0003H  0001H
 M    0433    0E02         S    INCFSZ    0002H  0001H
 M    0434    A436         S    GOTO      0436H
 M    0435    4103         S    SETDP     0003H
 M    0436    1634         S    DECFSZ    0034H  0001H
 M    0437    A430         S    GOTO      0430H
 M    0438    0000         S    NOP
 M    0439    0248         S    CLRF      0048H
 M    043A    2046         S    MOVFW     0046H
 M    043B    2233         S    MOVWF     0033H
 M    043C    C204         S    BCF       0004H  0001H
 M    043D    3633         S    RLF       0033H  0001H
 M    043E    3433         S    RLF       0033H  0000H
 M    043F    0649         S    ADDWF     0049H  0001H
 M    0440    F204         S    BTFSS     0004H  0001H
 M    0441    A443         S    GOTO      0443H
 M    0442    0A48         S    INCF      0048H  0001H
 M    0443    2048         S    MOVFW     0048H
 M    0444    2226         S    MOVWF     0026H
 M    0445    2049         S    MOVFW     0049H
 M    0446    2227         S    MOVWF     0027H
 M    0447    4100         S    SETDP     0000H
 M    0448    4050         S    MOVLW     0050H
 M    0449    2202         S    MOVWF     0002H
 M    044A    86A3         S    CALL      06A3H
 M    044B    2028         S    MOVFW     0028H
 M    044C    224B         S    MOVWF     004BH
 M    044D    4032         S    MOVLW     0032H
 M    044E    2240         S    MOVWF     0040H
 M    044F    D816         S    BSF       0016H  0004H
 M    0450    A27F         S    GOTO      027FH
 M    0451    D04A         S    BSF       004AH  0000H
 M    0452    4100         S    SETDP     0000H
 M    0453    A8FF         S    GOTO      08FFH
0026                       S    	INCLUDE CONSUMERIR.ASM
 M    0454    4002         S    MOVLW     0002H
 M    0455    3841         S    SUBWFC    0041H  0000H
 M    0456    E204         S    BTFSC     0004H  0001H
 M    0457    A54B         S    GOTO      054BH
 M    0458    2041         S    MOVFW     0041H
 M    0459    2226         S    MOVWF     0026H
 M    045A    2042         S    MOVFW     0042H
 M    045B    2227         S    MOVWF     0027H
 M    045C    400A         S    MOVLW     000AH
 M    045D    1A27         S    SUBWF     0027H  0001H
 M    045E    4000         S    MOVLW     0000H
 M    045F    3A26         S    SUBWFC    0026H  0001H
 M    0460    4100         S    SETDP     0000H
 M    0461    404A         S    MOVLW     004AH
 M    0462    2202         S    MOVWF     0002H
 M    0463    86A3         S    CALL      06A3H
 M    0464    2028         S    MOVFW     0028H
 M    0465    1849         S    SUBWF     0049H  0000H
 M    0466    F004         S    BTFSS     0004H  0000H
 M    0467    A54D         S    GOTO      054DH
 M    0468    A4CC         S    GOTO      04CCH
 M    0469    4002         S    MOVLW     0002H
 M    046A    3841         S    SUBWFC    0041H  0000H
 M    046B    E204         S    BTFSC     0004H  0001H
 M    046C    A54B         S    GOTO      054BH
 M    046D    2041         S    MOVFW     0041H
 M    046E    2226         S    MOVWF     0026H
 M    046F    2042         S    MOVFW     0042H
 M    0470    2227         S    MOVWF     0027H
 M    0471    400A         S    MOVLW     000AH
 M    0472    1A27         S    SUBWF     0027H  0001H
 M    0473    4000         S    MOVLW     0000H
 M    0474    3A26         S    SUBWFC    0026H  0001H
 M    0475    4100         S    SETDP     0000H
 M    0476    404A         S    MOVLW     004AH
 M    0477    2202         S    MOVWF     0002H
 M    0478    86A3         S    CALL      06A3H
 M    0479    2028         S    MOVFW     0028H
 M    047A    1849         S    SUBWF     0049H  0000H
 M    047B    F004         S    BTFSS     0004H  0000H
 M    047C    A54D         S    GOTO      054DH
 M    047D    0006         S    CLRWDT
 M    047E    403F         S    MOVLW     003FH
 M    047F    0442         S    ADDWF     0042H  0000H
 M    0480    2227         S    MOVWF     0027H
 M    0481    4000         S    MOVLW     0000H
 M    0482    2641         S    ADDWFC    0041H  0001H
 M    0483    2226         S    MOVWF     0026H
 M    0484    E026         S    BTFSC     0026H  0000H
 M    0485    A488         S    GOTO      0488H
 M    0486    4100         S    SETDP     0000H
 M    0487    A489         S    GOTO      0489H
 M    0488    4101         S    SETDP     0001H
 M    0489    2027         S    MOVFW     0027H
 M    048A    2202         S    MOVWF     0002H
 M    048B    2000         S    MOVFW     0000H
 M    048C    2223         S    MOVWF     0023H
 M    048D    4001         S    MOVLW     0001H
 M    048E    1A42         S    SUBWF     0042H  0001H
 M    048F    4000         S    MOVLW     0000H
 M    0490    3A41         S    SUBWFC    0041H  0001H
 M    0491    2023         S    MOVFW     0023H
 M    0492    2224         S    MOVWF     0024H
 M    0493    FE24         S    BTFSS     0024H  0007H
 M    0494    A498         S    GOTO      0498H
 M    0495    2024         S    MOVFW     0024H
 M    0496    70D5         S    XORLW     00D5H
 M    0497    2224         S    MOVWF     0024H
 M    0498    C204         S    BCF       0004H  0001H
 M    0499    3624         S    RLF       0024H  0001H
 M    049A    FE23         S    BTFSS     0023H  0007H
 M    049B    A49F         S    GOTO      049FH
 M    049C    2024         S    MOVFW     0024H
 M    049D    6C01         S    IORLW     0001H
 M    049E    2224         S    MOVWF     0024H
 M    049F    2042         S    MOVFW     0042H
 M    04A0    222C         S    MOVWF     002CH
 M    04A1    2041         S    MOVFW     0041H
 M    04A2    222D         S    MOVWF     002DH
 M    04A3    400A         S    MOVLW     000AH
 M    04A4    1A2C         S    SUBWF     002CH  0001H
 M    04A5    4000         S    MOVLW     0000H
 M    04A6    3A2D         S    SUBWFC    002DH  0001H
 M    04A7    0227         S    CLRF      0027H
 M    04A8    0226         S    CLRF      0026H
 M    04A9    4100         S    SETDP     0000H
 M    04AA    404A         S    MOVLW     004AH
 M    04AB    2202         S    MOVWF     0002H
 M    04AC    2027         S    MOVFW     0027H
 M    04AD    3224         S    XORWF     0024H  0001H
 M    04AE    2024         S    MOVFW     0024H
 M    04AF    2231         S    MOVWF     0031H
 M    04B0    C204         S    BCF       0004H  0001H
 M    04B1    3E31         S    RRF       0031H  0001H
 M    04B2    2024         S    MOVFW     0024H
 M    04B3    F024         S    BTFSS     0024H  0000H
 M    04B4    A4B8         S    GOTO      04B8H
 M    04B5    2031         S    MOVFW     0031H
 M    04B6    70D5         S    XORLW     00D5H
 M    04B7    2231         S    MOVWF     0031H
 M    04B8    2000         S    MOVFW     0000H
 M    04B9    3031         S    XORWF     0031H  0000H
 M    04BA    2200         S    MOVWF     0000H
 M    04BB    0A24         S    INCF      0024H  0001H
 M    04BC    0E02         S    INCFSZ    0002H  0001H
 M    04BD    A4BF         S    GOTO      04BFH
 M    04BE    4101         S    SETDP     0001H
 M    04BF    4001         S    MOVLW     0001H
 M    04C0    0627         S    ADDWF     0027H  0001H
 M    04C1    4000         S    MOVLW     0000H
 M    04C2    2626         S    ADDWFC    0026H  0001H
 M    04C3    202D         S    MOVFW     002DH
 M    04C4    1826         S    SUBWF     0026H  0000H
 M    04C5    F004         S    BTFSS     0004H  0000H
 M    04C6    A4AC         S    GOTO      04ACH
 M    04C7    202C         S    MOVFW     002CH
 M    04C8    1827         S    SUBWF     0027H  0000H
 M    04C9    F004         S    BTFSS     0004H  0000H
 M    04CA    A4AC         S    GOTO      04ACH
 M    04CB    0006         S    CLRWDT
 M    04CC    0246         S    CLRF      0046H
 M    04CD    D20B         S    BSF       000BH  0001H
 M    04CE    D80B         S    BSF       000BH  0004H
 M    04CF    C204         S    BCF       0004H  0001H
 M    04D0    3C43         S    RRF       0043H  0000H
 M    04D1    2209         S    MOVWF     0009H
 M    04D2    2043         S    MOVFW     0043H
 M    04D3    220A         S    MOVWF     000AH
 M    04D4    C81E         S    BCF       001EH  0004H
 M    04D5    D61E         S    BSF       001EH  0003H
 M    04D6    CE0B         S    BCF       000BH  0007H
 M    04D7    4002         S    MOVLW     0002H
 M    04D8    220E         S    MOVWF     000EH
 M    04D9    CE0E         S    BCF       000EH  0007H
 M    04DA    D60E         S    BSF       000EH  0003H
 M    04DB    0206         S    CLRF      0006H
 M    04DC    C807         S    BCF       0007H  0004H
 M    04DD    CE07         S    BCF       0007H  0007H
 M    04DE    2043         S    MOVFW     0043H
 M    04DF    5880         S    SUBLW     0080H
 M    04E0    2224         S    MOVWF     0024H
 M    04E1    4009         S    MOVLW     0009H
 M    04E2    0624         S    ADDWF     0024H  0001H
 M    04E3    2044         S    MOVFW     0044H
 M    04E4    2239         S    MOVWF     0039H
 M    04E5    2045         S    MOVFW     0045H
 M    04E6    223A         S    MOVWF     003AH
 M    04E7    4001         S    MOVLW     0001H
 M    04E8    1A3A         S    SUBWF     003AH  0001H
 M    04E9    4000         S    MOVLW     0000H
 M    04EA    3A39         S    SUBWFC    0039H  0001H
 M    04EB    4100         S    SETDP     0000H
 M    04EC    4040         S    MOVLW     0040H
 M    04ED    444A         S    ADDLW     004AH
 M    04EE    2202         S    MOVWF     0002H
 M    04EF    2000         S    MOVFW     0000H
 M    04F0    2234         S    MOVWF     0034H
 M    04F1    3E34         S    RRF       0034H  0001H
 M    04F2    3E34         S    RRF       0034H  0001H
 M    04F3    3E34         S    RRF       0034H  0001H
 M    04F4    3C34         S    RRF       0034H  0000H
 M    04F5    680F         S    ANDLW     000FH
 M    04F6    2235         S    MOVWF     0035H
 M    04F7    C204         S    BCF       0004H  0001H
 M    04F8    3635         S    RLF       0035H  0001H
 M    04F9    C204         S    BCF       0004H  0001H
 M    04FA    3635         S    RLF       0035H  0001H
 M    04FB    2035         S    MOVFW     0035H
 M    04FC    444A         S    ADDLW     004AH
 M    04FD    2203         S    MOVWF     0003H
 M    04FE    2001         S    MOVFW     0001H
 M    04FF    2230         S    MOVWF     0030H
 M    0500    0A03         S    INCF      0003H  0001H
 M    0501    2001         S    MOVFW     0001H
 M    0502    2231         S    MOVWF     0031H
 M    0503    0A03         S    INCF      0003H  0001H
 M    0504    2001         S    MOVFW     0001H
 M    0505    2232         S    MOVWF     0032H
 M    0506    0A03         S    INCF      0003H  0001H
 M    0507    2001         S    MOVFW     0001H
 M    0508    2233         S    MOVWF     0033H
 M    0509    0A30         S    INCF      0030H  0001H
 M    050A    0A32         S    INCF      0032H  0001H
 M    050B    D60B         S    BSF       000BH  0003H
 M    050C    806D         S    CALL      006DH
 M    050D    1631         S    DECFSZ    0031H  0001H
 M    050E    A50C         S    GOTO      050CH
 M    050F    1630         S    DECFSZ    0030H  0001H
 M    0510    A50C         S    GOTO      050CH
 M    0511    C60B         S    BCF       000BH  0003H
 M    0512    806D         S    CALL      006DH
 M    0513    1633         S    DECFSZ    0033H  0001H
 M    0514    A512         S    GOTO      0512H
 M    0515    1632         S    DECFSZ    0032H  0001H
 M    0516    A512         S    GOTO      0512H
 M    0517    4001         S    MOVLW     0001H
 M    0518    1A3A         S    SUBWF     003AH  0001H
 M    0519    4000         S    MOVLW     0000H
 M    051A    3A39         S    SUBWFC    0039H  0001H
 M    051B    F204         S    BTFSS     0004H  0001H
 M    051C    A54A         S    GOTO      054AH
 M    051D    2000         S    MOVFW     0000H
 M    051E    680F         S    ANDLW     000FH
 M    051F    2235         S    MOVWF     0035H
 M    0520    C204         S    BCF       0004H  0001H
 M    0521    3635         S    RLF       0035H  0001H
 M    0522    C204         S    BCF       0004H  0001H
 M    0523    3635         S    RLF       0035H  0001H
 M    0524    2035         S    MOVFW     0035H
 M    0525    444A         S    ADDLW     004AH
 M    0526    2203         S    MOVWF     0003H
 M    0527    2001         S    MOVFW     0001H
 M    0528    2230         S    MOVWF     0030H
 M    0529    0A03         S    INCF      0003H  0001H
 M    052A    2001         S    MOVFW     0001H
 M    052B    2231         S    MOVWF     0031H
 M    052C    0A03         S    INCF      0003H  0001H
 M    052D    2001         S    MOVFW     0001H
 M    052E    2232         S    MOVWF     0032H
 M    052F    0A03         S    INCF      0003H  0001H
 M    0530    2001         S    MOVFW     0001H
 M    0531    2233         S    MOVWF     0033H
 M    0532    0A30         S    INCF      0030H  0001H
 M    0533    0A32         S    INCF      0032H  0001H
 M    0534    D60B         S    BSF       000BH  0003H
 M    0535    806D         S    CALL      006DH
 M    0536    1631         S    DECFSZ    0031H  0001H
 M    0537    A535         S    GOTO      0535H
 M    0538    1630         S    DECFSZ    0030H  0001H
 M    0539    A535         S    GOTO      0535H
 M    053A    C60B         S    BCF       000BH  0003H
 M    053B    806D         S    CALL      006DH
 M    053C    1633         S    DECFSZ    0033H  0001H
 M    053D    A53B         S    GOTO      053BH
 M    053E    1632         S    DECFSZ    0032H  0001H
 M    053F    A53B         S    GOTO      053BH
 M    0540    4001         S    MOVLW     0001H
 M    0541    1A3A         S    SUBWF     003AH  0001H
 M    0542    4000         S    MOVLW     0000H
 M    0543    3A39         S    SUBWFC    0039H  0001H
 M    0544    F204         S    BTFSS     0004H  0001H
 M    0545    A54A         S    GOTO      054AH
 M    0546    0E02         S    INCFSZ    0002H  0001H
 M    0547    A4EF         S    GOTO      04EFH
 M    0548    4101         S    SETDP     0001H
 M    0549    A4EF         S    GOTO      04EFH
 M    054A    0003         S    RETURN
 M    054B    D046         S    BSF       0046H  0000H
 M    054C    A8FF         S    GOTO      08FFH
 M    054D    C416         S    BCF       0016H  0002H
 M    054E    D246         S    BSF       0046H  0001H
 M    054F    D416         S    BSF       0016H  0002H
 M    0550    A8FF         S    GOTO      08FFH
0027                       S    	INCLUDE I2C_CMD_PROTOCOL.ASM
 M    0551    0008         S    ADDPCW
 M    0552    4840         S    RETLW     0040H
 M    0553    4860         S    RETLW     0060H
 M    0554    4880         S    RETLW     0080H
 M    0555    48A0         S    RETLW     00A0H
 M    0556    48C0         S    RETLW     00C0H
 M    0557    48E0         S    RETLW     00E0H
 M    0558    4800         S    RETLW     0000H
 M    0559    4820         S    RETLW     0020H
 M    055A    4840         S    RETLW     0040H
 M    055B    4860         S    RETLW     0060H
 M    055C    4880         S    RETLW     0080H
 M    055D    48A0         S    RETLW     00A0H
 M    055E    48C0         S    RETLW     00C0H
 M    055F    48E0         S    RETLW     00E0H
 M    0560    4800         S    RETLW     0000H
 M    0561    4800         S    RETLW     0000H
 M    0562    4800         S    RETLW     0000H
 M    0563    4800         S    RETLW     0000H
 M    0564    4042         S    MOVLW     0042H
 M    0565    23F8         S    MOVWF     01F8H
 M    0566    4007         S    MOVLW     0007H
 M    0567    23F9         S    MOVWF     01F9H
 M    0568    4018         S    MOVLW     0018H
 M    0569    23FA         S    MOVWF     01FAH
 M    056A    4001         S    MOVLW     0001H
 M    056B    23FB         S    MOVWF     01FBH
 M    056C    0003         S    RETURN
 M    056D    40F8         S    MOVLW     01F8H
 M    056E    2202         S    MOVWF     0002H
 M    056F    4101         S    SETDP     0001H
 M    0570    2000         S    MOVFW     0000H
 M    0571    A653         S    GOTO      0653H
 M    0572    A5AC         S    GOTO      05ACH
 M    0573    A653         S    GOTO      0653H
 M    0574    A5AC         S    GOTO      05ACH
 M    0575    DA22         S    BSF       0022H  0005H
 M    0576    DC22         S    BSF       0022H  0006H
 M    0577    4100         S    SETDP     0000H
 M    0578    A653         S    GOTO      0653H
 M    0579    DA22         S    BSF       0022H  0005H
 M    057A    C622         S    BCF       0022H  0003H
 M    057B    E620         S    BTFSC     0020H  0003H
 M    057C    A57F         S    GOTO      057FH
 M    057D    C221         S    BCF       0021H  0001H
 M    057E    A580         S    GOTO      0580H
 M    057F    D221         S    BSF       0021H  0001H
 M    0580    4030         S    MOVLW     0030H
 M    0581    2240         S    MOVWF     0040H
 M    0582    2020         S    MOVFW     0020H
 M    0583    6807         S    ANDLW     0007H
 M    0584    2225         S    MOVWF     0025H
 M    0585    A653         S    GOTO      0653H
 M    0586    DA22         S    BSF       0022H  0005H
 M    0587    C622         S    BCF       0022H  0003H
 M    0588    D621         S    BSF       0021H  0003H
 M    0589    2020         S    MOVFW     0020H
 M    058A    2240         S    MOVWF     0040H
 M    058B    A653         S    GOTO      0653H
 M    058C    D622         S    BSF       0022H  0003H
 M    058D    D621         S    BSF       0021H  0003H
 M    058E    A653         S    GOTO      0653H
 M    058F    2020         S    MOVFW     0020H
 M    0590    E020         S    BTFSC     0020H  0000H
 M    0591    A594         S    GOTO      0594H
 M    0592    C21E         S    BCF       001EH  0001H
 M    0593    A595         S    GOTO      0595H
 M    0594    D21E         S    BSF       001EH  0001H
 M    0595    E220         S    BTFSC     0020H  0001H
 M    0596    A599         S    GOTO      0599H
 M    0597    C41E         S    BCF       001EH  0002H
 M    0598    A59A         S    GOTO      059AH
 M    0599    D41E         S    BSF       001EH  0002H
 M    059A    E420         S    BTFSC     0020H  0002H
 M    059B    A59E         S    GOTO      059EH
 M    059C    CA1E         S    BCF       001EH  0005H
 M    059D    A59F         S    GOTO      059FH
 M    059E    DA1E         S    BSF       001EH  0005H
 M    059F    A653         S    GOTO      0653H
 M    05A0    2020         S    MOVFW     0020H
 M    05A1    E020         S    BTFSC     0020H  0000H
 M    05A2    A5A5         S    GOTO      05A5H
 M    05A3    CC1E         S    BCF       001EH  0006H
 M    05A4    A5A6         S    GOTO      05A6H
 M    05A5    DC1E         S    BSF       001EH  0006H
 M    05A6    E220         S    BTFSC     0020H  0001H
 M    05A7    A5AA         S    GOTO      05AAH
 M    05A8    CE1E         S    BCF       001EH  0007H
 M    05A9    A5AB         S    GOTO      05ABH
 M    05AA    DE1E         S    BSF       001EH  0007H
 M    05AB    A653         S    GOTO      0653H
 M    05AC    2020         S    MOVFW     0020H
 M    05AD    680F         S    ANDLW     000FH
 M    05AE    2220         S    MOVWF     0020H
 M    05AF    8551         S    CALL      0551H
 M    05B0    2202         S    MOVWF     0002H
 M    05B1    4006         S    MOVLW     0006H
 M    05B2    1820         S    SUBWF     0020H  0000H
 M    05B3    E204         S    BTFSC     0004H  0001H
 M    05B4    A5B8         S    GOTO      05B8H
 M    05B5    4100         S    SETDP     0000H
 M    05B6    2000         S    MOVFW     0000H
 M    05B7    A653         S    GOTO      0653H
 M    05B8    4101         S    SETDP     0001H
 M    05B9    2000         S    MOVFW     0000H
 M    05BA    A653         S    GOTO      0653H
0028                       S    	INCLUDE PERIPHERAL.ASM
 M    05BB    D611         S    BSF       0011H  0003H
 M    05BC    C011         S    BCF       0011H  0000H
 M    05BD    C211         S    BCF       0011H  0001H
 M    05BE    C411         S    BCF       0011H  0002H
 M    05BF    0207         S    CLRF      0007H
 M    05C0    0206         S    CLRF      0006H
 M    05C1    DE07         S    BSF       0007H  0007H
 M    05C2    0003         S    RETURN
 M    05C3    4002         S    MOVLW     0002H
 M    05C4    220E         S    MOVWF     000EH
 M    05C5    020B         S    CLRF      000BH
 M    05C6    0207         S    CLRF      0007H
 M    05C7    0206         S    CLRF      0006H
 M    05C8    C007         S    BCF       0007H  0000H
 M    05C9    CE0E         S    BCF       000EH  0007H
 M    05CA    40FF         S    MOVLW     00FFH
 M    05CB    2219         S    MOVWF     0019H
 M    05CC    40FF         S    MOVLW     00FFH
 M    05CD    221A         S    MOVWF     001AH
 M    05CE    40EF         S    MOVLW     00EFH
 M    05CF    2214         S    MOVWF     0014H
 M    05D0    4000         S    MOVLW     0000H
 M    05D1    2215         S    MOVWF     0015H
 M    05D2    40F7         S    MOVLW     00F7H
 M    05D3    2213         S    MOVWF     0013H
 M    05D4    40FE         S    MOVLW     00FEH
 M    05D5    2217         S    MOVWF     0017H
 M    05D6    4000         S    MOVLW     0000H
 M    05D7    2218         S    MOVWF     0018H
 M    05D8    4000         S    MOVLW     0000H
 M    05D9    2216         S    MOVWF     0016H
 M    05DA    DE1F         S    BSF       001FH  0007H
 M    05DB    0003         S    RETURN
 M    05DC    4030         S    MOVLW     0030H
 M    05DD    2223         S    MOVWF     0023H
 M    05DE    85E2         S    CALL      05E2H
 M    05DF    1623         S    DECFSZ    0023H  0001H
 M    05E0    A5DE         S    GOTO      05DEH
 M    05E1    0003         S    RETURN
 M    05E2    4010         S    MOVLW     0010H
 M    05E3    0000         S    NOP
 M    05E4    2224         S    MOVWF     0024H
 M    05E5    1624         S    DECFSZ    0024H  0001H
 M    05E6    A5E5         S    GOTO      05E5H
 M    05E7    0003         S    RETURN
 M    05E8    400D         S    MOVLW     000DH
 M    05E9    2224         S    MOVWF     0024H
 M    05EA    1624         S    DECFSZ    0024H  0001H
 M    05EB    A5EA         S    GOTO      05EAH
 M    05EC    0003         S    RETURN
 M    05ED    4100         S    SETDP     0000H
 M    05EE    4020         S    MOVLW     0020H
 M    05EF    A5F3         S    GOTO      05F3H
 M    05F0    4100         S    SETDP     0000H
 M    05F1    4040         S    MOVLW     0040H
 M    05F2    A5F3         S    GOTO      05F3H
 M    05F3    2202         S    MOVWF     0002H
 M    05F4    0200         S    CLRF      0000H
 M    05F5    0E02         S    INCFSZ    0002H  0001H
 M    05F6    A5F4         S    GOTO      05F4H
 M    05F7    4000         S    MOVLW     0000H
 M    05F8    2202         S    MOVWF     0002H
 M    05F9    4101         S    SETDP     0001H
 M    05FA    0200         S    CLRF      0000H
 M    05FB    0E02         S    INCFSZ    0002H  0001H
 M    05FC    A5FA         S    GOTO      05FAH
 M    05FD    4100         S    SETDP     0000H
 M    05FE    4042         S    MOVLW     0042H
 M    05FF    23F8         S    MOVWF     01F8H
 M    0600    4007         S    MOVLW     0007H
 M    0601    23F9         S    MOVWF     01F9H
 M    0602    4018         S    MOVLW     0018H
 M    0603    23FA         S    MOVWF     01FAH
 M    0604    4001         S    MOVLW     0001H
 M    0605    23FB         S    MOVWF     01FBH
 M    0606    0003         S    RETURN
 M    0607    4100         S    SETDP     0000H
 M    0608    0229         S    CLRF      0029H
 M    0609    4040         S    MOVLW     0040H
 M    060A    2202         S    MOVWF     0002H
 M    060B    4001         S    MOVLW     0001H
 M    060C    2226         S    MOVWF     0026H
 M    060D    40C0         S    MOVLW     00C0H
 M    060E    2227         S    MOVWF     0027H
 M    060F    2029         S    MOVFW     0029H
 M    0610    2200         S    MOVWF     0000H
 M    0611    0A29         S    INCF      0029H  0001H
 M    0612    0E02         S    INCFSZ    0002H  0001H
 M    0613    A615         S    GOTO      0615H
 M    0614    4101         S    SETDP     0001H
 M    0615    1626         S    DECFSZ    0026H  0001H
 M    0616    A60F         S    GOTO      060FH
 M    0617    1627         S    DECFSZ    0027H  0001H
 M    0618    A60F         S    GOTO      060FH
 M    0619    0000         S    NOP
 M    061A    0003         S    RETURN
0029                       S    	INCLUDE INTERRUPT.ASM
 M    061B    F206         S    BTFSS     0006H  0001H
 M    061C    A655         S    GOTO      0655H
 M    061D    E81F         S    BTFSC     001FH  0004H
 M    061E    A624         S    GOTO      0624H
 M    061F    FC1F         S    BTFSS     001FH  0006H
 M    0620    A653         S    GOTO      0653H
 M    0621    F822         S    BTFSS     0022H  0004H
 M    0622    A636         S    GOTO      0636H
 M    0623    A62F         S    GOTO      062FH
 M    0624    EC1F         S    BTFSC     001FH  0006H
 M    0625    A62D         S    GOTO      062DH
 M    0626    0E02         S    INCFSZ    0002H  0001H
 M    0627    A629         S    GOTO      0629H
 M    0628    4101         S    SETDP     0001H
 M    0629    2000         S    MOVFW     0000H
 M    062A    DC1F         S    BSF       001FH  0006H
 M    062B    0206         S    CLRF      0006H
 M    062C    0002         S    RETFIE
 M    062D    0206         S    CLRF      0006H
 M    062E    0002         S    RETFIE
 M    062F    4300         S    MOVI2CW
 M    0630    2200         S    MOVWF     0000H
 M    0631    0E02         S    INCFSZ    0002H  0001H
 M    0632    A634         S    GOTO      0634H
 M    0633    4101         S    SETDP     0001H
 M    0634    0206         S    CLRF      0006H
 M    0635    0002         S    RETFIE
 M    0636    D822         S    BSF       0022H  0004H
 M    0637    4300         S    MOVI2CW
 M    0638    2220         S    MOVWF     0020H
 M    0639    4C20         S    SWAPF     0020H  0000H
 M    063A    680F         S    ANDLW     000FH
 M    063B    0008         S    ADDPCW
 M    063C    A64C         S    GOTO      064CH
 M    063D    A574         S    GOTO      0574H
 M    063E    A575         S    GOTO      0575H
 M    063F    A579         S    GOTO      0579H
 M    0640    A586         S    GOTO      0586H
 M    0641    A58C         S    GOTO      058CH
 M    0642    A56D         S    GOTO      056DH
 M    0643    A572         S    GOTO      0572H
 M    0644    A58F         S    GOTO      058FH
 M    0645    A5A0         S    GOTO      05A0H
 M    0646    A64C         S    GOTO      064CH
 M    0647    A64C         S    GOTO      064CH
 M    0648    A64C         S    GOTO      064CH
 M    0649    A64C         S    GOTO      064CH
 M    064A    A64C         S    GOTO      064CH
 M    064B    A64C         S    GOTO      064CH
 M    064C    C60E         S    BCF       000EH  0003H
 M    064D    C807         S    BCF       0007H  0004H
 M    064E    C207         S    BCF       0007H  0001H
 M    064F    CE07         S    BCF       0007H  0007H
 M    0650    0206         S    CLRF      0006H
 M    0651    D021         S    BSF       0021H  0000H
 M    0652    0002         S    RETFIE
 M    0653    0206         S    CLRF      0006H
 M    0654    0002         S    RETFIE
 M    0655    E022         S    BTFSC     0022H  0000H
 M    0656    A65E         S    GOTO      065EH
 M    0657    0206         S    CLRF      0006H
 M    0658    CE0E         S    BCF       000EH  0007H
 M    0659    D60E         S    BSF       000EH  0003H
 M    065A    C611         S    BCF       0011H  0003H
 M    065B    CE11         S    BCF       0011H  0007H
 M    065C    C422         S    BCF       0022H  0002H
 M    065D    0002         S    RETFIE
 M    065E    E616         S    BTFSC     0016H  0003H
 M    065F    A662         S    GOTO      0662H
 M    0660    D616         S    BSF       0016H  0003H
 M    0661    A663         S    GOTO      0663H
 M    0662    C616         S    BCF       0016H  0003H
 M    0663    F422         S    BTFSS     0022H  0002H
 M    0664    A66F         S    GOTO      066FH
 M    0665    E813         S    BTFSC     0013H  0004H
 M    0666    A67A         S    GOTO      067AH
 M    0667    200D         S    MOVFW     000DH
 M    0668    222A         S    MOVWF     002AH
 M    0669    200C         S    MOVFW     000CH
 M    066A    222B         S    MOVWF     002BH
 M    066B    C422         S    BCF       0022H  0002H
 M    066C    D222         S    BSF       0022H  0001H
 M    066D    CE0E         S    BCF       000EH  0007H
 M    066E    A67A         S    GOTO      067AH
 M    066F    F813         S    BTFSS     0013H  0004H
 M    0670    A67A         S    GOTO      067AH
 M    0671    200D         S    MOVFW     000DH
 M    0672    222E         S    MOVWF     002EH
 M    0673    222C         S    MOVWF     002CH
 M    0674    200C         S    MOVFW     000CH
 M    0675    222D         S    MOVWF     002DH
 M    0676    222F         S    MOVWF     002FH
 M    0677    D422         S    BSF       0022H  0002H
 M    0678    CE0E         S    BCF       000EH  0007H
 M    0679    A67A         S    GOTO      067AH
 M    067A    0206         S    CLRF      0006H
 M    067B    CE11         S    BCF       0011H  0007H
 M    067C    0002         S    RETFIE
 M    067D    C007         S    BCF       0007H  0000H
 M    067E    0002         S    RETFIE
 M    067F    E406         S    BTFSC     0006H  0002H
 M    0680    A68E         S    GOTO      068EH
 M    0681    C806         S    BCF       0006H  0004H
 M    0682    40FF         S    MOVLW     00FFH
 M    0683    222B         S    MOVWF     002BH
 M    0684    40FF         S    MOVLW     00FFH
 M    0685    222A         S    MOVWF     002AH
 M    0686    202F         S    MOVFW     002FH
 M    0687    222D         S    MOVWF     002DH
 M    0688    202E         S    MOVFW     002EH
 M    0689    222C         S    MOVWF     002CH
 M    068A    D422         S    BSF       0022H  0002H
 M    068B    D622         S    BSF       0022H  0003H
 M    068C    D222         S    BSF       0022H  0001H
 M    068D    0002         S    RETFIE
 M    068E    E422         S    BTFSC     0022H  0002H
 M    068F    A69D         S    GOTO      069DH
 M    0690    200C         S    MOVFW     000CH
 M    0691    222B         S    MOVWF     002BH
 M    0692    200D         S    MOVFW     000DH
 M    0693    222A         S    MOVWF     002AH
 M    0694    202F         S    MOVFW     002FH
 M    0695    222D         S    MOVWF     002DH
 M    0696    202E         S    MOVFW     002EH
 M    0697    222C         S    MOVWF     002CH
 M    0698    022F         S    CLRF      002FH
 M    0699    022E         S    CLRF      002EH
 M    069A    D422         S    BSF       0022H  0002H
 M    069B    C60E         S    BCF       000EH  0003H
 M    069C    D611         S    BSF       0011H  0003H
 M    069D    0E2F         S    INCFSZ    002FH  0001H
 M    069E    A6A0         S    GOTO      06A0H
 M    069F    0A2E         S    INCF      002EH  0001H
 M    06A0    CE11         S    BCF       0011H  0007H
 M    06A1    0206         S    CLRF      0006H
 M    06A2    0002         S    RETFIE
0030                       S    	INCLUDE CALCULATION.ASM
 M    06A3    0228         S    CLRF      0028H
 M    06A4    2000         S    MOVFW     0000H
 M    06A5    3228         S    XORWF     0028H  0001H
 M    06A6    0E02         S    INCFSZ    0002H  0001H
 M    06A7    A6A9         S    GOTO      06A9H
 M    06A8    4101         S    SETDP     0001H
 M    06A9    4008         S    MOVLW     0008H
 M    06AA    2229         S    MOVWF     0029H
 M    06AB    2028         S    MOVFW     0028H
 M    06AC    6801         S    ANDLW     0001H
 M    06AD    5800         S    SUBLW     0000H
 M    06AE    E004         S    BTFSC     0004H  0000H
 M    06AF    A6B5         S    GOTO      06B5H
 M    06B0    C204         S    BCF       0004H  0001H
 M    06B1    3C28         S    RRF       0028H  0000H
 M    06B2    708C         S    XORLW     008CH
 M    06B3    2228         S    MOVWF     0028H
 M    06B4    A6B7         S    GOTO      06B7H
 M    06B5    C204         S    BCF       0004H  0001H
 M    06B6    3E28         S    RRF       0028H  0001H
 M    06B7    1629         S    DECFSZ    0029H  0001H
 M    06B8    A6AB         S    GOTO      06ABH
 M    06B9    4001         S    MOVLW     0001H
 M    06BA    1A27         S    SUBWF     0027H  0001H
 M    06BB    4000         S    MOVLW     0000H
 M    06BC    3A26         S    SUBWFC    0026H  0001H
 M    06BD    2026         S    MOVFW     0026H
 M    06BE    5800         S    SUBLW     0000H
 M    06BF    F004         S    BTFSS     0004H  0000H
 M    06C0    A6A4         S    GOTO      06A4H
 M    06C1    2027         S    MOVFW     0027H
 M    06C2    5800         S    SUBLW     0000H
 M    06C3    F004         S    BTFSS     0004H  0000H
 M    06C4    A6A4         S    GOTO      06A4H
 M    06C5    0003         S    RETURN
 M    06C6    E204         S    BTFSC     0004H  0001H
 M    06C7    0003         S    RETURN
 M    06C8    1E30         S    COMF      0030H  0001H
 M    06C9    1E31         S    COMF      0031H  0001H
 M    06CA    4001         S    MOVLW     0001H
 M    06CB    0630         S    ADDWF     0030H  0001H
 M    06CC    4000         S    MOVLW     0000H
 M    06CD    2631         S    ADDWFC    0031H  0001H
 M    06CE    0003         S    RETURN
0031                       S    	INCLUDE LEARN_SEND.ASM
 M    06CF    4002         S    MOVLW     0002H
 M    06D0    3848         S    SUBWFC    0048H  0000H
 M    06D1    E204         S    BTFSC     0004H  0001H
 M    06D2    A54B         S    GOTO      054BH
 M    06D3    2048         S    MOVFW     0048H
 M    06D4    2226         S    MOVWF     0026H
 M    06D5    2049         S    MOVFW     0049H
 M    06D6    2227         S    MOVWF     0027H
 M    06D7    4100         S    SETDP     0000H
 M    06D8    4050         S    MOVLW     0050H
 M    06D9    2202         S    MOVWF     0002H
 M    06DA    86A3         S    CALL      06A3H
 M    06DB    2028         S    MOVFW     0028H
 M    06DC    184B         S    SUBWF     004BH  0000H
 M    06DD    F004         S    BTFSS     0004H  0000H
 M    06DE    A54D         S    GOTO      054DH
 M    06DF    D20B         S    BSF       000BH  0001H
 M    06E0    D80B         S    BSF       000BH  0004H
 M    06E1    C204         S    BCF       0004H  0001H
 M    06E2    3E4F         S    RRF       004FH  0001H
 M    06E3    C204         S    BCF       0004H  0001H
 M    06E4    3C4F         S    RRF       004FH  0000H
 M    06E5    2209         S    MOVWF     0009H
 M    06E6    204F         S    MOVFW     004FH
 M    06E7    220A         S    MOVWF     000AH
 M    06E8    C81E         S    BCF       001EH  0004H
 M    06E9    D61E         S    BSF       001EH  0003H
 M    06EA    CE0B         S    BCF       000BH  0007H
 M    06EB    4002         S    MOVLW     0002H
 M    06EC    220E         S    MOVWF     000EH
 M    06ED    CE0E         S    BCF       000EH  0007H
 M    06EE    D60E         S    BSF       000EH  0003H
 M    06EF    0206         S    CLRF      0006H
 M    06F0    C807         S    BCF       0007H  0004H
 M    06F1    CE07         S    BCF       0007H  0007H
 M    06F2    204F         S    MOVFW     004FH
 M    06F3    5880         S    SUBLW     0080H
 M    06F4    2224         S    MOVWF     0024H
 M    06F5    4009         S    MOVLW     0009H
 M    06F6    0624         S    ADDWF     0024H  0001H
 M    06F7    204E         S    MOVFW     004EH
 M    06F8    223A         S    MOVWF     003AH
 M    06F9    C421         S    BCF       0021H  0002H
 M    06FA    4100         S    SETDP     0000H
 M    06FB    4050         S    MOVLW     0050H
 M    06FC    2202         S    MOVWF     0002H
 M    06FD    2000         S    MOVFW     0000H
 M    06FE    2230         S    MOVWF     0030H
 M    06FF    0E02         S    INCFSZ    0002H  0001H
 M    0700    A702         S    GOTO      0702H
 M    0701    4101         S    SETDP     0001H
 M    0702    2000         S    MOVFW     0000H
 M    0703    2231         S    MOVWF     0031H
 M    0704    0E02         S    INCFSZ    0002H  0001H
 M    0705    A707         S    GOTO      0707H
 M    0706    4101         S    SETDP     0001H
 M    0707    2000         S    MOVFW     0000H
 M    0708    2232         S    MOVWF     0032H
 M    0709    0E02         S    INCFSZ    0002H  0001H
 M    070A    A70C         S    GOTO      070CH
 M    070B    4101         S    SETDP     0001H
 M    070C    2000         S    MOVFW     0000H
 M    070D    2233         S    MOVWF     0033H
 M    070E    0A30         S    INCF      0030H  0001H
 M    070F    0A32         S    INCF      0032H  0001H
 M    0710    D60B         S    BSF       000BH  0003H
 M    0711    806D         S    CALL      006DH
 M    0712    1631         S    DECFSZ    0031H  0001H
 M    0713    A711         S    GOTO      0711H
 M    0714    1630         S    DECFSZ    0030H  0001H
 M    0715    A711         S    GOTO      0711H
 M    0716    C60B         S    BCF       000BH  0003H
 M    0717    1633         S    DECFSZ    0033H  0001H
 M    0718    A716         S    GOTO      0716H
 M    0719    1632         S    DECFSZ    0032H  0001H
 M    071A    A716         S    GOTO      0716H
 M    071B    E421         S    BTFSC     0021H  0002H
 M    071C    A722         S    GOTO      0722H
 M    071D    0E02         S    INCFSZ    0002H  0001H
 M    071E    A720         S    GOTO      0720H
 M    071F    4101         S    SETDP     0001H
 M    0720    163A         S    DECFSZ    003AH  0001H
 M    0721    A6FD         S    GOTO      06FDH
 M    0722    0000         S    NOP
 M    0723    0003         S    RETURN
0032                       S    	INCLUDE LEARN_ZIP2_SEND.ASM
 M    0724    4002         S    MOVLW     0002H
 M    0725    3848         S    SUBWFC    0048H  0000H
 M    0726    E204         S    BTFSC     0004H  0001H
 M    0727    A54B         S    GOTO      054BH
 M    0728    2048         S    MOVFW     0048H
 M    0729    2226         S    MOVWF     0026H
 M    072A    2049         S    MOVFW     0049H
 M    072B    2227         S    MOVWF     0027H
 M    072C    4100         S    SETDP     0000H
 M    072D    4050         S    MOVLW     0050H
 M    072E    2202         S    MOVWF     0002H
 M    072F    86A3         S    CALL      06A3H
 M    0730    2028         S    MOVFW     0028H
 M    0731    184B         S    SUBWF     004BH  0000H
 M    0732    F004         S    BTFSS     0004H  0000H
 M    0733    A54D         S    GOTO      054DH
 M    0734    C616         S    BCF       0016H  0003H
 M    0735    CE22         S    BCF       0022H  0007H
 M    0736    D20B         S    BSF       000BH  0001H
 M    0737    D80B         S    BSF       000BH  0004H
 M    0738    C204         S    BCF       0004H  0001H
 M    0739    3E4F         S    RRF       004FH  0001H
 M    073A    C204         S    BCF       0004H  0001H
 M    073B    3C4F         S    RRF       004FH  0000H
 M    073C    2209         S    MOVWF     0009H
 M    073D    204F         S    MOVFW     004FH
 M    073E    220A         S    MOVWF     000AH
 M    073F    C81E         S    BCF       001EH  0004H
 M    0740    D61E         S    BSF       001EH  0003H
 M    0741    CE0B         S    BCF       000BH  0007H
 M    0742    4002         S    MOVLW     0002H
 M    0743    220E         S    MOVWF     000EH
 M    0744    CE0E         S    BCF       000EH  0007H
 M    0745    D60E         S    BSF       000EH  0003H
 M    0746    0206         S    CLRF      0006H
 M    0747    C807         S    BCF       0007H  0004H
 M    0748    CE07         S    BCF       0007H  0007H
 M    0749    204F         S    MOVFW     004FH
 M    074A    5889         S    SUBLW     0089H
 M    074B    2224         S    MOVWF     0024H
 M    074C    204E         S    MOVFW     004EH
 M    074D    223A         S    MOVWF     003AH
 M    074E    C421         S    BCF       0021H  0002H
 M    074F    0A42         S    INCF      0042H  0001H
 M    0750    4100         S    SETDP     0000H
 M    0751    2046         S    MOVFW     0046H
 M    0752    2233         S    MOVWF     0033H
 M    0753    C204         S    BCF       0004H  0001H
 M    0754    3633         S    RLF       0033H  0001H
 M    0755    3433         S    RLF       0033H  0000H
 M    0756    4450         S    ADDLW     0050H
 M    0757    2202         S    MOVWF     0002H
 M    0758    EE22         S    BTFSC     0022H  0007H
 M    0759    A761         S    GOTO      0761H
 M    075A    2000         S    MOVFW     0000H
 M    075B    2245         S    MOVWF     0045H
 M    075C    4C45         S    SWAPF     0045H  0000H
 M    075D    680F         S    ANDLW     000FH
 M    075E    2245         S    MOVWF     0045H
 M    075F    DE22         S    BSF       0022H  0007H
 M    0760    A768         S    GOTO      0768H
 M    0761    2000         S    MOVFW     0000H
 M    0762    680F         S    ANDLW     000FH
 M    0763    2245         S    MOVWF     0045H
 M    0764    0E02         S    INCFSZ    0002H  0001H
 M    0765    A767         S    GOTO      0767H
 M    0766    4101         S    SETDP     0001H
 M    0767    CE22         S    BCF       0022H  0007H
 M    0768    C204         S    BCF       0004H  0001H
 M    0769    3645         S    RLF       0045H  0001H
 M    076A    C204         S    BCF       0004H  0001H
 M    076B    3445         S    RLF       0045H  0000H
 M    076C    4450         S    ADDLW     0050H
 M    076D    2203         S    MOVWF     0003H
 M    076E    2001         S    MOVFW     0001H
 M    076F    2230         S    MOVWF     0030H
 M    0770    0A03         S    INCF      0003H  0001H
 M    0771    2001         S    MOVFW     0001H
 M    0772    2231         S    MOVWF     0031H
 M    0773    0A03         S    INCF      0003H  0001H
 M    0774    2001         S    MOVFW     0001H
 M    0775    2232         S    MOVWF     0032H
 M    0776    0A03         S    INCF      0003H  0001H
 M    0777    2001         S    MOVFW     0001H
 M    0778    2233         S    MOVWF     0033H
 M    0779    0A30         S    INCF      0030H  0001H
 M    077A    0A32         S    INCF      0032H  0001H
 M    077B    D60B         S    BSF       000BH  0003H
 M    077C    806D         S    CALL      006DH
 M    077D    1631         S    DECFSZ    0031H  0001H
 M    077E    A77C         S    GOTO      077CH
 M    077F    1630         S    DECFSZ    0030H  0001H
 M    0780    A77C         S    GOTO      077CH
 M    0781    C60B         S    BCF       000BH  0003H
 M    0782    1633         S    DECFSZ    0033H  0001H
 M    0783    A781         S    GOTO      0781H
 M    0784    1632         S    DECFSZ    0032H  0001H
 M    0785    A781         S    GOTO      0781H
 M    0786    1643         S    DECFSZ    0043H  0001H
 M    0787    A758         S    GOTO      0758H
 M    0788    1642         S    DECFSZ    0042H  0001H
 M    0789    A758         S    GOTO      0758H
 M    078A    D616         S    BSF       0016H  0003H
 M    078B    0000         S    NOP
 M    078C    0003         S    RETURN
0033                       S    	INCLUDE LEARN_REC.ASM
 M    078D    4102         S    SETDP     0002H
 M    078E    0221         S    CLRF      0021H
 M    078F    0222         S    CLRF      0022H
 M    0790    C814         S    BCF       0014H  0004H
 M    0791    D022         S    BSF       0022H  0000H
 M    0792    4050         S    MOVLW     0050H
 M    0793    2233         S    MOVWF     0033H
 M    0794    4000         S    MOVLW     0000H
 M    0795    2234         S    MOVWF     0034H
 M    0796    0242         S    CLRF      0042H
 M    0797    0243         S    CLRF      0043H
 M    0798    40E8         S    MOVLW     00E8H
 M    0799    2232         S    MOVWF     0032H
 M    079A    C621         S    BCF       0021H  0003H
 M    079B    4003         S    MOVLW     0003H
 M    079C    220E         S    MOVWF     000EH
 M    079D    0209         S    CLRF      0009H
 M    079E    020A         S    CLRF      000AH
 M    079F    0243         S    CLRF      0043H
 M    07A0    0242         S    CLRF      0042H
 M    07A1    C807         S    BCF       0007H  0004H
 M    07A2    D207         S    BSF       0007H  0001H
 M    07A3    DE07         S    BSF       0007H  0007H
 M    07A4    C80B         S    BCF       000BH  0004H
 M    07A5    C816         S    BCF       0016H  0004H
 M    07A6    DA14         S    BSF       0014H  0005H
 M    07A7    CA13         S    BCF       0013H  0005H
 M    07A8    E621         S    BTFSC     0021H  0003H
 M    07A9    A87E         S    GOTO      087EH
 M    07AA    C61D         S    BCF       001DH  0003H
 M    07AB    E813         S    BTFSC     0013H  0004H
 M    07AC    A7A8         S    GOTO      07A8H
 M    07AD    D61D         S    BSF       001DH  0003H
 M    07AE    D816         S    BSF       0016H  0004H
 M    07AF    4006         S    MOVLW     0006H
 M    07B0    2211         S    MOVWF     0011H
 M    07B1    D611         S    BSF       0011H  0003H
 M    07B2    CE11         S    BCF       0011H  0007H
 M    07B3    4078         S    MOVLW     0078H
 M    07B4    220F         S    MOVWF     000FH
 M    07B5    CE0E         S    BCF       000EH  0007H
 M    07B6    D60E         S    BSF       000EH  0003H
 M    07B7    D807         S    BSF       0007H  0004H
 M    07B8    D607         S    BSF       0007H  0003H
 M    07B9    DE07         S    BSF       0007H  0007H
 M    07BA    0006         S    CLRWDT
 M    07BB    F222         S    BTFSS     0022H  0001H
 M    07BC    A7BA         S    GOTO      07BAH
 M    07BD    C222         S    BCF       0022H  0001H
 M    07BE    4102         S    SETDP     0002H
 M    07BF    2032         S    MOVFW     0032H
 M    07C0    2203         S    MOVWF     0003H
 M    07C1    202C         S    MOVFW     002CH
 M    07C2    2201         S    MOVWF     0001H
 M    07C3    0A32         S    INCF      0032H  0001H
 M    07C4    2032         S    MOVFW     0032H
 M    07C5    2203         S    MOVWF     0003H
 M    07C6    202D         S    MOVFW     002DH
 M    07C7    2201         S    MOVWF     0001H
 M    07C8    0A32         S    INCF      0032H  0001H
 M    07C9    2032         S    MOVFW     0032H
 M    07CA    2203         S    MOVWF     0003H
 M    07CB    202A         S    MOVFW     002AH
 M    07CC    2201         S    MOVWF     0001H
 M    07CD    0A32         S    INCF      0032H  0001H
 M    07CE    2032         S    MOVFW     0032H
 M    07CF    2203         S    MOVWF     0003H
 M    07D0    202B         S    MOVFW     002BH
 M    07D1    2201         S    MOVWF     0001H
 M    07D2    0A32         S    INCF      0032H  0001H
 M    07D3    40E8         S    MOVLW     00E8H
 M    07D4    2232         S    MOVWF     0032H
 M    07D5    A7D6         S    GOTO      07D6H
 M    07D6    0245         S    CLRF      0045H
 M    07D7    A7D9         S    GOTO      07D9H
 M    07D8    0A45         S    INCF      0045H  0001H
 M    07D9    2046         S    MOVFW     0046H
 M    07DA    5800         S    SUBLW     0000H
 M    07DB    E004         S    BTFSC     0004H  0000H
 M    07DC    A828         S    GOTO      0828H
 M    07DD    2045         S    MOVFW     0045H
 M    07DE    1846         S    SUBWF     0046H  0000H
 M    07DF    E004         S    BTFSC     0004H  0000H
 M    07E0    A828         S    GOTO      0828H
 M    07E1    2045         S    MOVFW     0045H
 M    07E2    2233         S    MOVWF     0033H
 M    07E3    C204         S    BCF       0004H  0001H
 M    07E4    3633         S    RLF       0033H  0001H
 M    07E5    C204         S    BCF       0004H  0001H
 M    07E6    3433         S    RLF       0033H  0000H
 M    07E7    4450         S    ADDLW     0050H
 M    07E8    2202         S    MOVWF     0002H
 M    07E9    2000         S    MOVFW     0000H
 M    07EA    2238         S    MOVWF     0038H
 M    07EB    0A02         S    INCF      0002H  0001H
 M    07EC    2000         S    MOVFW     0000H
 M    07ED    2239         S    MOVWF     0039H
 M    07EE    0A02         S    INCF      0002H  0001H
 M    07EF    2000         S    MOVFW     0000H
 M    07F0    223A         S    MOVWF     003AH
 M    07F1    0A02         S    INCF      0002H  0001H
 M    07F2    2000         S    MOVFW     0000H
 M    07F3    223B         S    MOVWF     003BH
 M    07F4    2039         S    MOVFW     0039H
 M    07F5    182D         S    SUBWF     002DH  0000H
 M    07F6    2230         S    MOVWF     0030H
 M    07F7    2038         S    MOVFW     0038H
 M    07F8    382C         S    SUBWFC    002CH  0000H
 M    07F9    2231         S    MOVWF     0031H
 M    07FA    86C6         S    CALL      06C6H
 M    07FB    4032         S    MOVLW     0032H
 M    07FC    1830         S    SUBWF     0030H  0000H
 M    07FD    4000         S    MOVLW     0000H
 M    07FE    3831         S    SUBWFC    0031H  0000H
 M    07FF    E204         S    BTFSC     0004H  0001H
 M    0800    A7D8         S    GOTO      07D8H
 M    0801    203B         S    MOVFW     003BH
 M    0802    182B         S    SUBWF     002BH  0000H
 M    0803    2230         S    MOVWF     0030H
 M    0804    203A         S    MOVFW     003AH
 M    0805    382A         S    SUBWFC    002AH  0000H
 M    0806    2231         S    MOVWF     0031H
 M    0807    86C6         S    CALL      06C6H
 M    0808    4032         S    MOVLW     0032H
 M    0809    1830         S    SUBWF     0030H  0000H
 M    080A    4000         S    MOVLW     0000H
 M    080B    3831         S    SUBWFC    0031H  0000H
 M    080C    E204         S    BTFSC     0004H  0001H
 M    080D    A7D8         S    GOTO      07D8H
 M    080E    4102         S    SETDP     0002H
 M    080F    EE22         S    BTFSC     0022H  0007H
 M    0810    A81C         S    GOTO      081CH
 M    0811    2034         S    MOVFW     0034H
 M    0812    2203         S    MOVWF     0003H
 M    0813    4C45         S    SWAPF     0045H  0000H
 M    0814    2201         S    MOVWF     0001H
 M    0815    DE22         S    BSF       0022H  0007H
 M    0816    0E43         S    INCFSZ    0043H  0001H
 M    0817    A819         S    GOTO      0819H
 M    0818    0A42         S    INCF      0042H  0001H
 M    0819    E622         S    BTFSC     0022H  0003H
 M    081A    A845         S    GOTO      0845H
 M    081B    A7BA         S    GOTO      07BAH
 M    081C    CE22         S    BCF       0022H  0007H
 M    081D    2034         S    MOVFW     0034H
 M    081E    2203         S    MOVWF     0003H
 M    081F    2045         S    MOVFW     0045H
 M    0820    2E01         S    IORWF     0001H  0001H
 M    0821    0A34         S    INCF      0034H  0001H
 M    0822    0E43         S    INCFSZ    0043H  0001H
 M    0823    A825         S    GOTO      0825H
 M    0824    0A42         S    INCF      0042H  0001H
 M    0825    E622         S    BTFSC     0022H  0003H
 M    0826    A845         S    GOTO      0845H
 M    0827    A7BA         S    GOTO      07BAH
 M    0828    2046         S    MOVFW     0046H
 M    0829    2233         S    MOVWF     0033H
 M    082A    C204         S    BCF       0004H  0001H
 M    082B    3633         S    RLF       0033H  0001H
 M    082C    C204         S    BCF       0004H  0001H
 M    082D    3433         S    RLF       0033H  0000H
 M    082E    4450         S    ADDLW     0050H
 M    082F    2202         S    MOVWF     0002H
 M    0830    202C         S    MOVFW     002CH
 M    0831    2200         S    MOVWF     0000H
 M    0832    0A02         S    INCF      0002H  0001H
 M    0833    202D         S    MOVFW     002DH
 M    0834    2200         S    MOVWF     0000H
 M    0835    0A02         S    INCF      0002H  0001H
 M    0836    202A         S    MOVFW     002AH
 M    0837    2200         S    MOVWF     0000H
 M    0838    0A02         S    INCF      0002H  0001H
 M    0839    202B         S    MOVFW     002BH
 M    083A    2200         S    MOVWF     0000H
 M    083B    0A46         S    INCF      0046H  0001H
 M    083C    4010         S    MOVLW     0010H
 M    083D    1846         S    SUBWF     0046H  0000H
 M    083E    E204         S    BTFSC     0004H  0001H
 M    083F    A843         S    GOTO      0843H
 M    0840    A80E         S    GOTO      080EH
 M    0841    D44A         S    BSF       004AH  0002H
 M    0842    A845         S    GOTO      0845H
 M    0843    D84A         S    BSF       004AH  0004H
 M    0844    A845         S    GOTO      0845H
 M    0845    CE07         S    BCF       0007H  0007H
 M    0846    C807         S    BCF       0007H  0004H
 M    0847    C407         S    BCF       0007H  0002H
 M    0848    C60E         S    BCF       000EH  0003H
 M    0849    0000         S    NOP
 M    084A    3E4E         S    RRF       004EH  0001H
 M    084B    3E4F         S    RRF       004FH  0001H
 M    084C    0803         S    INCF      0003H  0000H
 M    084D    2234         S    MOVWF     0034H
 M    084E    2249         S    MOVWF     0049H
 M    084F    2046         S    MOVFW     0046H
 M    0850    2233         S    MOVWF     0033H
 M    0851    224D         S    MOVWF     004DH
 M    0852    C204         S    BCF       0004H  0001H
 M    0853    3633         S    RLF       0033H  0001H
 M    0854    3633         S    RLF       0033H  0001H
 M    0855    4102         S    SETDP     0002H
 M    0856    4050         S    MOVLW     0050H
 M    0857    0433         S    ADDWF     0033H  0000H
 M    0858    2202         S    MOVWF     0002H
 M    0859    204D         S    MOVFW     004DH
 M    085A    2233         S    MOVWF     0033H
 M    085B    4000         S    MOVLW     0100H
 M    085C    2203         S    MOVWF     0003H
 M    085D    2001         S    MOVFW     0001H
 M    085E    2200         S    MOVWF     0000H
 M    085F    0A03         S    INCF      0003H  0001H
 M    0860    0E02         S    INCFSZ    0002H  0001H
 M    0861    A863         S    GOTO      0863H
 M    0862    4103         S    SETDP     0003H
 M    0863    1634         S    DECFSZ    0034H  0001H
 M    0864    A85D         S    GOTO      085DH
 M    0865    0000         S    NOP
 M    0866    0248         S    CLRF      0048H
 M    0867    2046         S    MOVFW     0046H
 M    0868    2233         S    MOVWF     0033H
 M    0869    C204         S    BCF       0004H  0001H
 M    086A    3633         S    RLF       0033H  0001H
 M    086B    3433         S    RLF       0033H  0000H
 M    086C    0649         S    ADDWF     0049H  0001H
 M    086D    F204         S    BTFSS     0004H  0001H
 M    086E    A870         S    GOTO      0870H
 M    086F    0A48         S    INCF      0048H  0001H
 M    0870    2048         S    MOVFW     0048H
 M    0871    2226         S    MOVWF     0026H
 M    0872    2049         S    MOVFW     0049H
 M    0873    2227         S    MOVWF     0027H
 M    0874    4100         S    SETDP     0000H
 M    0875    4050         S    MOVLW     0050H
 M    0876    2202         S    MOVWF     0002H
 M    0877    86A3         S    CALL      06A3H
 M    0878    2028         S    MOVFW     0028H
 M    0879    224B         S    MOVWF     004BH
 M    087A    4041         S    MOVLW     0041H
 M    087B    2240         S    MOVWF     0040H
 M    087C    D816         S    BSF       0016H  0004H
 M    087D    A27F         S    GOTO      027FH
 M    087E    D04A         S    BSF       004AH  0000H
 M    087F    4100         S    SETDP     0000H
 M    0880    A8FF         S    GOTO      08FFH
 M    0881    D04A         S    BSF       004AH  0000H
 M    0882    202C         S    MOVFW     002CH
 M    0883    2200         S    MOVWF     0000H
 M    0884    0A02         S    INCF      0002H  0001H
 M    0885    202D         S    MOVFW     002DH
 M    0886    2200         S    MOVWF     0000H
 M    0887    0E02         S    INCFSZ    0002H  0001H
 M    0888    A88A         S    GOTO      088AH
 M    0889    4101         S    SETDP     0001H
 M    088A    202A         S    MOVFW     002AH
 M    088B    2200         S    MOVWF     0000H
 M    088C    0A02         S    INCF      0002H  0001H
 M    088D    202B         S    MOVFW     002BH
 M    088E    2200         S    MOVWF     0000H
 M    088F    0E02         S    INCFSZ    0002H  0001H
 M    0890    A892         S    GOTO      0892H
 M    0891    4101         S    SETDP     0001H
 M    0892    0A43         S    INCF      0043H  0001H
 M    0893    4100         S    SETDP     0000H
 M    0894    A8FF         S    GOTO      08FFH
 M    0895    4102         S    SETDP     0002H
 M    0896    0221         S    CLRF      0021H
 M    0897    0222         S    CLRF      0022H
 M    0898    C814         S    BCF       0014H  0004H
 M    0899    D022         S    BSF       0022H  0000H
 M    089A    4050         S    MOVLW     0050H
 M    089B    2202         S    MOVWF     0002H
 M    089C    2233         S    MOVWF     0033H
 M    089D    0242         S    CLRF      0042H
 M    089E    0243         S    CLRF      0043H
 M    089F    C621         S    BCF       0021H  0003H
 M    08A0    4003         S    MOVLW     0003H
 M    08A1    220E         S    MOVWF     000EH
 M    08A2    0209         S    CLRF      0009H
 M    08A3    020A         S    CLRF      000AH
 M    08A4    0243         S    CLRF      0043H
 M    08A5    0242         S    CLRF      0042H
 M    08A6    C807         S    BCF       0007H  0004H
 M    08A7    D207         S    BSF       0007H  0001H
 M    08A8    DE07         S    BSF       0007H  0007H
 M    08A9    C80B         S    BCF       000BH  0004H
 M    08AA    C816         S    BCF       0016H  0004H
 M    08AB    DA14         S    BSF       0014H  0005H
 M    08AC    CA13         S    BCF       0013H  0005H
 M    08AD    E621         S    BTFSC     0021H  0003H
 M    08AE    A87E         S    GOTO      087EH
 M    08AF    C61D         S    BCF       001DH  0003H
 M    08B0    E813         S    BTFSC     0013H  0004H
 M    08B1    A8AD         S    GOTO      08ADH
 M    08B2    C61D         S    BCF       001DH  0003H
 M    08B3    D816         S    BSF       0016H  0004H
 M    08B4    4006         S    MOVLW     0006H
 M    08B5    2211         S    MOVWF     0011H
 M    08B6    D611         S    BSF       0011H  0003H
 M    08B7    CE11         S    BCF       0011H  0007H
 M    08B8    4078         S    MOVLW     0078H
 M    08B9    220F         S    MOVWF     000FH
 M    08BA    CE0E         S    BCF       000EH  0007H
 M    08BB    D60E         S    BSF       000EH  0003H
 M    08BC    D807         S    BSF       0007H  0004H
 M    08BD    D607         S    BSF       0007H  0003H
 M    08BE    DE07         S    BSF       0007H  0007H
 M    08BF    0006         S    CLRWDT
 M    08C0    E622         S    BTFSC     0022H  0003H
 M    08C1    A8DD         S    GOTO      08DDH
 M    08C2    F222         S    BTFSS     0022H  0001H
 M    08C3    A8BF         S    GOTO      08BFH
 M    08C4    C222         S    BCF       0022H  0001H
 M    08C5    202C         S    MOVFW     002CH
 M    08C6    2200         S    MOVWF     0000H
 M    08C7    0A02         S    INCF      0002H  0001H
 M    08C8    202D         S    MOVFW     002DH
 M    08C9    2200         S    MOVWF     0000H
 M    08CA    0E02         S    INCFSZ    0002H  0001H
 M    08CB    A8CD         S    GOTO      08CDH
 M    08CC    4101         S    SETDP     0001H
 M    08CD    202A         S    MOVFW     002AH
 M    08CE    2200         S    MOVWF     0000H
 M    08CF    0A02         S    INCF      0002H  0001H
 M    08D0    202B         S    MOVFW     002BH
 M    08D1    2200         S    MOVWF     0000H
 M    08D2    0E02         S    INCFSZ    0002H  0001H
 M    08D3    A8D5         S    GOTO      08D5H
 M    08D4    4101         S    SETDP     0001H
 M    08D5    0A43         S    INCF      0043H  0001H
 M    08D6    406A         S    MOVLW     006AH
 M    08D7    1843         S    SUBWF     0043H  0000H
 M    08D8    E204         S    BTFSC     0004H  0001H
 M    08D9    A8DB         S    GOTO      08DBH
 M    08DA    A8BF         S    GOTO      08BFH
 M    08DB    D44A         S    BSF       004AH  0002H
 M    08DC    A8DD         S    GOTO      08DDH
 M    08DD    CE07         S    BCF       0007H  0007H
 M    08DE    C807         S    BCF       0007H  0004H
 M    08DF    C607         S    BCF       0007H  0003H
 M    08E0    C60E         S    BCF       000EH  0003H
 M    08E1    0000         S    NOP
 M    08E2    2043         S    MOVFW     0043H
 M    08E3    2249         S    MOVWF     0049H
 M    08E4    C204         S    BCF       0004H  0001H
 M    08E5    3649         S    RLF       0049H  0001H
 M    08E6    3648         S    RLF       0048H  0001H
 M    08E7    3649         S    RLF       0049H  0001H
 M    08E8    3648         S    RLF       0048H  0001H
 M    08E9    2048         S    MOVFW     0048H
 M    08EA    2226         S    MOVWF     0026H
 M    08EB    2049         S    MOVFW     0049H
 M    08EC    2227         S    MOVWF     0027H
 M    08ED    4100         S    SETDP     0000H
 M    08EE    4050         S    MOVLW     0050H
 M    08EF    2202         S    MOVWF     0002H
 M    08F0    86A3         S    CALL      06A3H
 M    08F1    2028         S    MOVFW     0028H
 M    08F2    224B         S    MOVWF     004BH
 M    08F3    4040         S    MOVLW     0040H
 M    08F4    2240         S    MOVWF     0040H
 M    08F5    D816         S    BSF       0016H  0004H
 M    08F6    A27F         S    GOTO      027FH
0034                       S    ;	INCLUDE LEARN_NEW.ASM
0035                       S    ;	INCLUDE DATA_MATCH.ASM
0036                       S    
0037                       S    ;===================================
0038                       S    ; MAIN SUBROUTINE ENTRANCE
0039                       S    ;===================================
0040                       S    MAIN:
0041  08F7    0000         S    		NOP
0042  08F8    0000         S    		NOP
0043  08F9    0000         S    		NOP
0044  08FA    E604         S    		BTFSC	STATUS,TO
0045  08FB    A95D         S    		GOTO	WDTC_STATUS
 M    08FC    C61D         S    BCF       001DH  0003H
0046                       S    		_WDT_DIS
0047                       S    
0048                       S    MAIN_START:
0049  08FD    85C3         S    		CALL	SYSINI
0050  08FE    85ED         S    		CALL	RAMSCLEARALL
0051                       S    	;	CALL	PUSH_LEARN_RAM
0052                       S    	;	CALL	INIVERSION
0053                       S    	
0054                       S    
0055                       S    
0056                       S    ;===================================
0057                       S    ; SLEEP MODE
0058                       S    ;===================================
0059                       S    SLEEPMODE:
0060  08FF    802D         S    		CALL	NOP1000
0061  0900    CE1E         S    		BCF     RMTCTR,SENS_CURT1
0062  0901    CC1E         S    		BCF     RMTCTR,SENS_CURT0
0063  0902    C81E         S    		BCF     RMTCTR,RX_EN				
0064  0903    C61E         S    		BCF     RMTCTR,TX_EN			 ;RX_EN=0,TX_EN=0 ½ûÖ¹·¢Éä£¬½ûÖ¹½ÓÊÕ-->½µµÍ¹¦ºÄ
0065  0904    DA1E         S    		BSF     RMTCTR,PWM_CURT
0066  0905    D41E         S    		BSF     RMTCTR,PWM_CURT1		;µçÁ÷ÉèÖÃ1	
0067  0906    D21E         S    		BSF     RMTCTR,PWM_CURT0		;µçÁ÷ÉèÖÃ0
0068                       S    
0069  0907    D41F         S    		BSF	I2CCON,I2C_PT15				;PT1.5 OD(¿ªÂ©¹¦ÄÜ)´ò¿ª
0070  0908    DE1F         S    		BSF	I2CCON,I2C_EN				;ENABLE I2C PORT(PT1_4(SCL), PT1_3(SDA))
0071  0909    C607         S    		BCF	INTE,TMBIE
 M    090A    D816         S    BSF       0016H  0004H
 M    090B    D616         S    BSF       0016H  0003H
 M    090C    D416         S    BSF       0016H  0002H
0072                       S    		_GREEN_CLR
0073                       S    		_RED_CLR
0074                       S    		_BLUE_CLR
0075                       S    ;SLEEPMODE_1:		
0076                       S    	
0077  090D    0222         S    		CLRF	FLAG
 M    090E    C61D         S    BCF       001DH  0003H
0079  090F    0006         S    		CLRWDT
0080                       S    
 M    0910    CA14         S    BCF       0014H  0005H
 M    0911    DA13         S    BSF       0013H  0005H
0081                       S    		_ET4207_NOT_BUSY_
0082                       S    
0083  0912    C207         S    		BCF		INTE,I2CIE ;DISABLE I2C INTERRPUT
0084  0913    CE07         S    		BCF		INTE,GIE
0085  0914    0206         S    		CLRF	INTF
0086  0915    C822         S    		BCF		FLAG,ISCMDBYTE
0087  0916    0004         S    		SLEEP
0088                       S    	;	GOTO	LEARN_RMT
0089  0917    0000         S    		NOP
0090  0918    0000         S    		NOP
 M    0919    D61D         S    BSF       001DH  0003H
 M    091A    DA14         S    BSF       0014H  0005H
 M    091B    CA13         S    BCF       0013H  0005H
0091                       S    		_WDT_EN				;_WDT_EN
0092                       S    		_ET4207_BUSY_
0093                       S    	
0094                       S    
0095                       S    
0096                       S    ;I2C:		
0097                       S    			;MOVFW	PPACKPOINTER
0098                       S    			;MOVWF	FRS0
0099  091C    D207         S    		BSF		INTE, I2CIE ;ENABLE I2C INTERRPUT
0100  091D    DE07         S    		BSF		INTE, GIE ;ENABLE GLOBLE INTERRUPT 
0101                       S    I2CWATINGFORSTOP:
0102                       S    	;	BTFSC   FLAG, ISERROR  ;IF CMD IS ERROR GOTO SLEEP MODE
0103  091E    FA1F         S    		BTFSS   I2CCON, I2C_STO  ;IF I2C_STO=1, DEAL WITH DATA, OTHER WAIT
0104  091F    A91E         S    		GOTO	I2CWATINGFORSTOP
0105  0920    C207         S    		BCF		INTE,I2CIE ;DISABLE I2C INTERRPUT
0106  0921    CE07         S    		BCF		INTE,GIE
0107  0922    C822         S    		BCF		FLAG,ISCMDBYTE
0108                       S    			
0109  0923    EA22         S    		BTFSC	FLAG,ISCMDEND
0110  0924    A926         S    		GOTO	MAINSTART
0111                       S    
0112  0925    A8FF         S    		GOTO	SLEEPMODE
0113                       S    	
0114                       S    MAINSTART:
0115  0926    2040         S    		MOVFW	_WRITE_CMD_DATA
0116  0927    5800         S    		SUBLW	00H
0117  0928    E004         S    		BTFSC	STATUS,Z
0118  0929    A78D         S    		GOTO	RECEIVER_START
0119                       S    		
0120  092A    2040         S    		MOVFW	_WRITE_CMD_DATA
0121  092B    5830         S    		SUBLW	30H
0122  092C    E004         S    		BTFSC	STATUS,Z
0123  092D    A94C         S    		GOTO	RMT_LEARN_START
0124  092E    2040         S    		MOVFW	_WRITE_CMD_DATA
0125  092F    5840         S    		SUBLW	40H
0126  0930    E004         S    		BTFSC	STATUS,Z
0127  0931    A895         S    		GOTO	RECEIVER_START_NOZIP
0128  0932    2040         S    		MOVFW	_WRITE_CMD_DATA
0129  0933    5841         S    		SUBLW	41H
0130  0934    E004         S    		BTFSC	STATUS,Z
0131  0935    A78D         S    		GOTO	RECEIVER_START
0132  0936    FC22         S    		BTFSS	FLAG,ISSEND
0133  0937    A8FF         S    		GOTO	SLEEPMODE
0134  0938    CC22         S    		BCF		FLAG,ISSEND	
0135  0939    2040         S    		MOVFW	_WRITE_CMD_DATA
0136  093A    5854         S    		SUBLW	054H
0137  093B    E004         S    		BTFSC	STATUS,Z
0138  093C    8454         S    		CALL	CONSUMERIR_START
0139  093D    2040         S    		MOVFW	_WRITE_CMD_DATA
0140  093E    5855         S    		SUBLW	055H
0141  093F    E004         S    		BTFSC	STATUS,Z
0142  0940    8469         S    		CALL	TIANJIA_START
0143  0941    2040         S    		MOVFW	_WRITE_CMD_DATA
0144  0942    5856         S    		SUBLW	056H
0145  0943    E004         S    		BTFSC	STATUS,Z
0146  0944    86CF         S    		CALL	LEARN_SEND
0147  0945    2040         S    		MOVFW	_WRITE_CMD_DATA
0148  0946    5832         S    		SUBLW	032H
0149  0947    E004         S    		BTFSC	STATUS,Z
0150  0948    8724         S    		CALL	LEARN_ZIP2_SEND
0151  0949    2040         S    		MOVFW	_WRITE_CMD_DATA
0152                       S    	
0153  094A    0000         S    		NOP
0154  094B    A8FF         S    		GOTO	SLEEPMODE	
0155                       S    RMT_LEARN_START:
0156                       S    		
0157                       S    	;	BSF		TCCONA,CAPSEL
0158  094C    85F0         S    		CALL	LEARN_RAM_CLR
0159  094D    2025         S    		MOVFW	LEARN_MODE
0160  094E    5800         S    		SUBLW	00H
0161  094F    E004         S    		BTFSC	STATUS,Z
0162  0950    A281         S    		GOTO	LEARN_RMT_NORMAL
0163                       S    	;	GOTO	LEARN_RMT_ZIP2
0164  0951    2025         S    		MOVFW	LEARN_MODE
0165  0952    5801         S    		SUBLW	01H
0166  0953    E004         S    		BTFSC	STATUS,Z
0167  0954    A10A         S    		GOTO	LEARN_RMT_ZIP
0168  0955    2025         S    		MOVFW	LEARN_MODE
0169  0956    5802         S    		SUBLW	02H
0170  0957    E004         S    		BTFSC	STATUS,Z
0171  0958    A337         S    		GOTO	LEARN_RMT_ZIP2
0172                       S    		
0173  0959    A8FF         S    		GOTO	SLEEPMODE
0174                       S    REC_LEARN_START:
0175  095A    85F0         S    		CALL	LEARN_RAM_CLR
0176  095B    A78D         S    		GOTO	RECEIVER_START
0177  095C    A8FF         S    		GOTO	SLEEPMODE
0178                       S    ;===================================
0179                       S    ; WATCHDOG OUT DEAL
0180                       S    ;===================================
0181                       S    
0182                       S    WDTC_STATUS:
0183  095D    0000         S    		NOP
0184  095E    0204         S    		CLRF	STATUS
0185  095F    A8FD         S    		GOTO	MAIN_START
0186                       S    
0187                       S    
0188                       S    
0189                       S    	 
0190                       S    
0191                       S    
0192                       S    		END                =================== << SYMBOL TABLE LISTING >> ========================
NAME                                    TYPE    VALUE  ATTRIBUTE   LINE
-----------------------------------------------------------------------
MAINSTART                               N NUMB  0926H
SLEEPMODE                               N NUMB  08FFH
RECL_ZIPDATA_PUSH                       N NUMB  085DH
RECL_COMPARE                            N NUMB  07F4H
SYSINI                                  N NUMB  05C3H
LEARN_OK                                N NUMB  027FH
MOV_SAMPLE_TO_PART                      N NUMB  0250H
LRN_INPUT_SELECT                        N NUMB  0124H
NOP34                                   N NUMB  004DH
NOP42                                   N NUMB  0045H
NOP500                                  N NUMB  0033H
NOP3500                                 N NUMB  0028H
NOP6000                                 N NUMB  0023H
_NPAIRS_H                               N NUMB  0044H
FREQL2                                  N NUMB  0063H
N_PARTINDEXCOUNT                        N NUMB  004CH
LEARN_TYPE                              N NUMB  0040H
SAMPLE0_NLOWLEVEL_H                     N NUMB  003AH
BUSY                                    N NUMB  0005H
BPT10                                   N NUMB  0000H
TCRSTB                                  N NUMB  0007H
DUTY_SEL1                               N NUMB  0006H
PWMEN                                   N NUMB  0003H
I2CIE                                   N NUMB  0001H
CAPIF                                   N NUMB  0002H
FRS1                                    N NUMB  0003H
WDTC_STATUS                             N NUMB  095DH
I2CWATINGFORSTOP                        N NUMB  091EH
LEARN_ZIP2_LOWHALF                      N NUMB  0761H
NEG                                     N NUMB  06C6H
STARTETLEARN                            N NUMB  0579H
READVERSION                             N NUMB  056DH
LEARN_ERR_TIMEOUT                       N NUMB  0279H
LRN_INPUT_END_2                         N NUMB  016BH
NOP17                                   N NUMB  005EH
NOP37                                   N NUMB  004AH
NOP43                                   N NUMB  0044H
NOP650                                  N NUMB  0030H
NOP1000                                 N NUMB  002DH
_FREQ                                   N NUMB  0043H
FREQL1                                  N NUMB  0061H
FREQH                                   N NUMB  004EH
ISP14                                   N NUMB  0003H
BPT11                                   N NUMB  0001H
TCRSTA                                  N NUMB  0007H
TMBIE                                   N NUMB  0003H
TMAIF                                   N NUMB  0004H
I2CIF                                   N NUMB  0001H
TO                                      N NUMB  0003H
DC                                      N NUMB  0002H
OSC_TEST                                N NUMB  001FH
I2C_STO                                 N NUMB  0005H
I2CCON                                  N NUMB  001FH
TSETB                                   N NUMB  000FH
REC_NZ_WAIT_FIRST_DOWN_EDGE                    N NUMB  08ADH
LEARN_SEND_END                          N NUMB  0722H
INIT_RAM1                               N NUMB  060FH
CONSUMERIR_DECODE_END                    N NUMB  054AH
LRNZ_END                                N NUMB  0418H
LRNZ_INPUT_SELECT                       N NUMB  034FH
NLEARN_LEN_END                          N NUMB  031FH
LRNN_INPUT_SELECT                       N NUMB  0295H
LEARN_OUT                               N NUMB  027CH
NOP16                                   N NUMB  005FH
NOP36                                   N NUMB  004BH
NOP44                                   N NUMB  0043H
NOP250                                  N NUMB  0038H
TIANJIA_TEMP1                           N NUMB  002CH
ISHIGHLOW                               N NUMB  0002H
FLAG                                    N NUMB  0022H
ISLEARNEND                              N NUMB  0003H
ISSENDEND                               N NUMB  0002H
_DELTA_REC_HIGH_H_                      N NUMB  0000H
CAPPHA                                  N NUMB  0004H
LVD_F                                   N NUMB  0005H
I2C_PT15                                N NUMB  0002H
PT1EN                                   N NUMB  0014H
KEY_VALUE                               N NUMB  0012H
TCOUTB                                  N NUMB  0010H
TCOUTAH                                 N NUMB  000DH
TSETAH                                  N NUMB  000AH
REC_LEARN_OUT                           N NUMB  087EH
ET_XCAL_CRC                             N NUMB  06A3H
TIMBINT_REC_END                         N NUMB  067AH
INITVALUE                               N NUMB  0607H
DELAY_40US                              N NUMB  05E2H
INITINTP                                N NUMB  05BBH
WRITEEND                                N NUMB  0575H
TIANJIAEND                              N NUMB  04CCH
LRNZ_DATA_OUT                           N NUMB  0414H
SAMPLECOMPARE_1                         N NUMB  01C7H
NOP15                                   N NUMB  0060H
NOP31                                   N NUMB  0050H
NOP550                                  N NUMB  0032H
NOP3000                                 N NUMB  0029H
FREQH4                                  N NUMB  0066H
_LENGTH_H_LEARN                         N NUMB  0048H
NPARTINDEXCOUNT                         N NUMB  0035H
P_SAMPLE                                N NUMB  0033H
DELTA_ABS_L                             N NUMB  0030H
STOPPUSH                                N NUMB  0004H
LED_RED                                 N NUMB  0003H
M6_CK                                   N NUMB  0006H
I2C_PT14                                N NUMB  0001H
WDTEN                                   N NUMB  0003H
PT2SEL                                  N NUMB  001AH
PT2                                     N NUMB  0016H
PT1PU                                   N NUMB  0015H
INTE                                    N NUMB  0007H
RMT_LEARN_START                         N NUMB  094CH
RECEIVER_START                          N NUMB  078DH
TIMBINTERRUPT                           N NUMB  0655H
LEARNZ_CAP_WAIT                         N NUMB  0369H
LEARNN_CAP_WAIT                         N NUMB  02AEH
SAMPLECOMPARE_0                         N NUMB  01A0H
LRN_INPUT_1                             N NUMB  0129H
NOP14                                   N NUMB  0061H
NOP22                                   N NUMB  0059H
NOP30                                   N NUMB  0051H
NOP46                                   N NUMB  0042H
NOP51                                   N NUMB  003DH
NOP150                                  N NUMB  003AH
NOP600                                  N NUMB  0031H
NOP2000                                 N NUMB  002BH
NOP9000                                 N NUMB  001DH
_CRC                                    N NUMB  0049H
_LENGTH_H                               N NUMB  0041H
_LENGTH_L_LEARN                         N NUMB  0049H
TOTAL_SAMPLE                            N NUMB  0046H
SAMPLE0_NLOWLEVEL_L                     N NUMB  003BH
NVERSION4                               N NUMB  01FBH
ISRECMODE                               N NUMB  0000H
STATE_FLAG                              N NUMB  0021H
LED_GREEN                               N NUMB  0004H
PWM_CURT                                N NUMB  0005H
TMAIE                                   N NUMB  0004H
TMBIF                                   N NUMB  0003H
PT1                                     N NUMB  0013H
INTF                                    N NUMB  0006H
RECEIVER_START_NOZIP                    N NUMB  0895H
LEARN_SEND                              N NUMB  06CFH
DLOOP2MS                                N NUMB  05DEH
SETLEARN                                N NUMB  05A0H
STOPETLEARN                             N NUMB  058CH
CONSUMERIR_START                        N NUMB  0454H
LRNZ_ZIPDATA_PUSH                       N NUMB  0430H
LEARN_NEXT                              N NUMB  0221H
LRN_INPUT_2                             N NUMB  0169H
LEARN_CAP_WAIT                          N NUMB  013EH
NOP13                                   N NUMB  0062H
NOP23                                   N NUMB  0058H
NOP33                                   N NUMB  004EH
NOP47                                   N NUMB  0041H
NOP50                                   N NUMB  003EH
NOP100                                  N NUMB  003BH
NOP2500                                 N NUMB  002AH
_WRITE_CMD_DATA                         N NUMB  0040H
FREQL                                   N NUMB  004FH
L_SAMPLE                                N NUMB  0004H
L_LEN                                   N NUMB  0003H
_LEARN_FLAG                             N NUMB  004AH
I2C_CMD                                 N NUMB  0020H
RX_EN                                   N NUMB  0004H
CAPDEB                                  N NUMB  0005H
E0IE                                    N NUMB  0000H
RST_FLAG_1                              N NUMB  0007H
RST_FLAG_0                              N NUMB  0006H
PT1SEL                                  N NUMB  0019H
MCK                                     N NUMB  0008H
WORK                                    N NUMB  0005H
RECL_NZ_DATA_OUT                        N NUMB  08DBH
RECL_PUSHNEWSAMPLE                      N NUMB  0828H
REC_WAIT_FIRST_DOWN_EDGE                    N NUMB  07A8H
INTERRUPT_06H                           N NUMB  067FH
I2CINTERRUPTEND                         N NUMB  0653H
ERROR                                   N NUMB  064CH
CMDDEAL                                 N NUMB  0636H
INTERRUPT_0CH                           N NUMB  061BH
DELAY_40US_L                            N NUMB  05E8H
LRNZ_COMPARE_NEXT                       N NUMB  03DEH
LRNZ_COMPARE                            N NUMB  03A9H
LRNZ_COLLECTION_LOOP                    N NUMB  03A0H
REMOTER_CODE_RESTONE                    N NUMB  022DH
NOP12                                   N NUMB  0063H
NOP20                                   N NUMB  005BH
NOP32                                   N NUMB  004FH
NOP6500                                 N NUMB  0022H
DELAY150MS                              N NUMB  0013H
TIANJIA_TEMP5                           N NUMB  0031H
P_PARTINDEXCOUNT                        N NUMB  0032H
NWRITEBYTECOUNT_H                       N NUMB  0026H
_CRC_COUNT                              N NUMB  0029H
ISHALF                                  N NUMB  0007H
REC                                     N NUMB  0004H
CAPSEL                                  N NUMB  0006H
PWM_PORT_SEL_2                          N NUMB  0002H
PWM_PORT_SEL_1                          N NUMB  0001H
PWM_PORT_SEL_0                          N NUMB  0000H
PT1MR                                   N NUMB  001BH
PT2PU                                   N NUMB  0018H
TCOUTAL                                 N NUMB  000CH
TSETAL                                  N NUMB  0009H
MAIN                                    N NUMB  08F7H
RECL_END                                N NUMB  0845H
RECL_PUSH_DATA_INDEX                    N NUMB  080EH
LEARN_ZIP2_HIGHLOW_END                    N NUMB  0768H
LEARN_ZIP2_SEND_ST                      N NUMB  0734H
ET_XCAL_CRC_LOOP_LOOP_8TIMES_END                    N NUMB  06B7H
I2CWRITEDATA                            N NUMB  062FH
READEND                                 N NUMB  0573H
LRNZ_COMPARE_ST1                        N NUMB  03DFH
LRNZ_COMPARE_ST                         N NUMB  03DCH
NOP11                                   N NUMB  0064H
NOP21                                   N NUMB  005AH
NOP48                                   N NUMB  0040H
START                                   N NUMB  0000H
POINTER0                                N NUMB  004AH
DELTA_ABS_H                             N NUMB  0031H
NVERSION1                               N NUMB  01F8H
ADDRESS_SAMPLE                          N NUMB  0100H
LED_BLUE                                N NUMB  0002H
BPT23                                   N NUMB  0003H
M4_CK                                   N NUMB  0004H
TX_EN                                   N NUMB  0003H
PWM_SEL                                 N NUMB  0007H
REC_NZ_LEARN_END                        N NUMB  08DDH
REC_SET_REG                             N NUMB  0792H
LEARN_ZIP2_SEND_END                     N NUMB  078AH
ET_XCAL_CRC_LOOP_8TIMES_REASULT_0                    N NUMB  06B5H
INTERRUPT_TIMERA                        N NUMB  0681H
CONSUMERIR_DECODELOOP                    N NUMB  04EFH
NLEARN_END                              N NUMB  0320H
NWAIT_LOOP                              N NUMB  02F5H
NOP10                                   N NUMB  0065H
NOP26                                   N NUMB  0055H
NOP49                                   N NUMB  003FH
POINTER1                                N NUMB  004AH
_LENGTH_L                               N NUMB  0042H
SAMPLE0_NHIGHLEVEL_L                    N NUMB  0039H
SAMPLE0_NHIGHLEVEL_H                    N NUMB  0038H
NHIGHLEVEL_L                            N NUMB  002DH
NHIGHLEVEL_H                            N NUMB  002CH
LEARN_MODE                              N NUMB  0025H
ISLEARNP14                              N NUMB  0001H
BPT22                                   N NUMB  0002H
M0_CK                                   N NUMB  0000H
TCOUTA_DIR                              N NUMB  0004H
E0IF                                    N NUMB  0000H
I2C_PT13                                N NUMB  0000H
I2C_ADDR                                N NUMB  0003H
I2C_EN                                  N NUMB  0007H
MAIN_START                              N NUMB  08FDH
RECL_SAMPLE_OUT                         N NUMB  0843H
LEARN_SEND_ST                           N NUMB  06DFH
INTERRUPT_CAPTURE_INC                    N NUMB  069DH
TIMBINT_REC_WAIT_HIGH                    N NUMB  066FH
I2CREADDATAEND                          N NUMB  062DH
DLOOP1                                  N NUMB  05EAH
DELAY_2MS                               N NUMB  05DCH
SETCURRENT                              N NUMB  058FH
SEND_LEN_ERR                            N NUMB  054BH
LEARN_RMT_NORMAL                        N NUMB  0281H
MOV_INDEX_TO_PART                       N NUMB  0244H
SAMPLECOMPARE_LOOP                      N NUMB  0198H
NOP8                                    N NUMB  0067H
NOP27                                   N NUMB  0054H
NOP200                                  N NUMB  0039H
NOP1500                                 N NUMB  002CH
NOP8000                                 N NUMB  001FH
_HIGH_H                                 N NUMB  0030H
N_INDEX                                 N NUMB  004EH
N_INDEXCOUNT_L                          N NUMB  0043H
N_INDEXCOUNT_H                          N NUMB  0042H
SAMPLE1_NLOWLEVEL_L                     N NUMB  003FH
NCOUNT                                  N NUMB  0029H
NVERSION3                               N NUMB  01FAH
ISSEND                                  N NUMB  0006H
_DELTA_REC_LOW_L_                       N NUMB  0032H
_DELTA_REC_LOW_H_                       N NUMB  0000H
BPT21                                   N NUMB  0001H
M2_CK                                   N NUMB  0002H
M7_CK                                   N NUMB  0007H
CCLKB_SEL2                              N NUMB  0002H
CCLKB_SEL1                              N NUMB  0001H
CCLKB_SEL0                              N NUMB  0000H
Z                                       N NUMB  0000H
RMTCTR                                  N NUMB  001EH
REC_NZ_SET_REG                          N NUMB  089AH
REC_WAIT_SUB                            N NUMB  07BAH
LEARN_ZIP2_SEND                         N NUMB  0724H
CLEARRAMS                               N NUMB  05F3H
DLOOP0                                  N NUMB  05E5H
READCODE                                N NUMB  0572H
SEND_CRC_ERR                            N NUMB  054DH
LEARN_RMT_ZIP2                          N NUMB  0337H
LEARN_ERROR                             N NUMB  0276H
LEARN_RMT_ZIP                           N NUMB  010AH
NOP9                                    N NUMB  0066H
NOP24                                   N NUMB  0057H
NOP8500                                 N NUMB  001EH
NOP10000                                N NUMB  001BH
NOP30000                                N NUMB  0019H
_NPAIRS_H_TEMP                          N NUMB  0039H
SAMPLE1_NHIGHLEVEL_L                    N NUMB  003DH
SAMPLE1_NHIGHLEVEL_H                    N NUMB  003CH
NWRITEBYTECOUNT_L                       N NUMB  0027H
NVERSION2                               N NUMB  01F9H
BLEARNEND                               N NUMB  0003H
_DELTA_LOWLEVEL_H_                      N NUMB  0000H
BPT20                                   N NUMB  0000H
M5_CK                                   N NUMB  0005H
PWM_CURT0                               N NUMB  0001H
PD                                      N NUMB  0004H
I2C_READY                               N NUMB  0006H
STATUS                                  N NUMB  0004H
LEARN_ZIP2_SEND_LOOP                    N NUMB  0758H
LEARN_RAM_CLR                           N NUMB  05F0H
STARTRECLEARN                           N NUMB  0586H
CONSUMERIR_REMOTE                       N NUMB  04CCH
PUSHNEWSAMPLE                           N NUMB  03F7H
N_PUSH                                  N NUMB  02FDH
NOP25                                   N NUMB  0056H
NOP5500                                 N NUMB  0024H
NOP7500                                 N NUMB  0020H
_LOW_L                                  N NUMB  0033H
_FORM_H                                 N NUMB  0046H
L_TIMEOUT                               N NUMB  0001H
L_OUT                                   N NUMB  0000H
INDEX_BIT                               N NUMB  0045H
NINDEXCOUNT_L                           N NUMB  0043H
NLOWLEVEL_H                             N NUMB  002AH
_DELTA_HIGHLEVEL_L_                     N NUMB  0003H
_DELTA_HIGHLEVEL_H_                     N NUMB  0000H
BPT27                                   N NUMB  0007H
BPT16                                   N NUMB  0006H
PWM_CURT1                               N NUMB  0002H
RMT_IN                                  N NUMB  0000H
TCENA                                   N NUMB  0003H
RECL_PUSH_DATA_INDEX_LOW                    N NUMB  081CH
TIMBINT_REC                             N NUMB  065EH
RAMSCLEARALL                            N NUMB  05EDH
ROMTAB                                  N NUMB  0551H
TIANJIA_START                           N NUMB  0469H
PUSH_DATA_INDEX                         N NUMB  03C3H
STORENEWSAMPLE                          N NUMB  01F1H
NOP39                                   N NUMB  0048H
NOP9500                                 N NUMB  001CH
NOP50000                                N NUMB  0017H
_REPEAT                                 N NUMB  0048H
_INDEX                                  N NUMB  0040H
ADDRESS_INDEX                           N NUMB  00C0H
BPT26                                   N NUMB  0006H
BPT17                                   N NUMB  0007H
WDTCTR                                  N NUMB  001DH
IND0                                    N NUMB  0000H
F                                       N NUMB  0001H
W                                       N NUMB  0000H
REC_NZ_WAIT_SUB                         N NUMB  08BFH
REC_LEARN_DATA_OUT                      N NUMB  0881H
RECL_COMPARE_ST1                        N NUMB  07D9H
RECL_COMPARE_NEXT                       N NUMB  07D8H
RECL_COMPARE_ST                         N NUMB  07D6H
LEARN_SEND_LOOP                         N NUMB  06FDH
INTERRUPT_EXT                           N NUMB  067DH
CLEARRAMLOOP_H                          N NUMB  05FAH
CLEARRAMLOOP_L                          N NUMB  05F4H
INIVERSION                              N NUMB  0564H
LRNZ_SAMPLE_OUT                         N NUMB  0416H
NOP4                                    N NUMB  006BH
NOP38                                   N NUMB  0049H
NOP400                                  N NUMB  0035H
NOP4000                                 N NUMB  0027H
TIANJIACODE_1                           N NUMB  0023H
_INDEX_1                                N NUMB  0035H
_HIGH_L                                 N NUMB  0031H
_NPAIRS_L                               N NUMB  0045H
FREQH3                                  N NUMB  0064H
N_SAMPLE                                N NUMB  004DH
LEARN_RESULT                            N NUMB  0041H
SAMPLE1_NLOWLEVEL_H                     N NUMB  003EH
_CRC_LEN_L                              N NUMB  0027H
_CRC_LEN_H                              N NUMB  0026H
ISCMDBYTE                               N NUMB  0004H
BPT25                                   N NUMB  0005H
BPT14                                   N NUMB  0004H
SENS_CURT1                              N NUMB  0007H
SENS_CURT0                              N NUMB  0006H
CCLKA_SEL2                              N NUMB  0002H
CCLKA_SEL1                              N NUMB  0001H
CCLKA_SEL0                              N NUMB  0000H
GIE                                     N NUMB  0007H
TCCONB                                  N NUMB  0011H
IND1                                    N NUMB  0001H
ET_XCAL_CRC_LOOP_LOOP_8TIMES                    N NUMB  06ABH
INTERRUPT_CAPTURE                       N NUMB  068EH
I2CREADDATA                             N NUMB  0624H
LEARN_RMT_ZIP2_OUT                      N NUMB  0451H
PUSH_DATA_INDEX_LOW                     N NUMB  03CEH
LRNZ_INPUT_END_2                        N NUMB  0396H
LRNZ_INPUT_2                            N NUMB  0394H
LRNZ_INPUT_END_1                        N NUMB  0356H
LRNZ_INPUT_1                            N NUMB  0354H
LRNN_INPUT_END_2                        N NUMB  02DBH
LRNN_INPUT_2                            N NUMB  02D9H
LRNN_INPUT_END_1                        N NUMB  029CH
LRNN_INPUT_1                            N NUMB  029AH
TIMER_DELAY_LOW                         N NUMB  0104H
NOP5                                    N NUMB  006AH
NOP350                                  N NUMB  0036H
NOP450                                  N NUMB  0034H
NOP7000                                 N NUMB  0021H
NOP40000                                N NUMB  0018H
FREQH2                                  N NUMB  0062H
NEW_NHIGHLEVEL_L                        N NUMB  002FH
NEW_NHIGHLEVEL_H                        N NUMB  002EH
DELAYCT1                                N NUMB  0024H
ISPULSEEND                              N NUMB  0001H
_DELTA_LOWLEVEL_L_                      N NUMB  0032H
BPT24                                   N NUMB  0004H
BPT15                                   N NUMB  0005H
M1_CK                                   N NUMB  0001H
M3_CK                                   N NUMB  0003H
TCENB                                   N NUMB  0003H
PT2EN                                   N NUMB  0017H
REC_LEARN_START                         N NUMB  095AH
GETADDRESSINDEX1                        N NUMB  05B8H
GETADDRESSINDEX                         N NUMB  05ACH
WRITECODE                               N NUMB  0574H
LRN_INPUT_END_1                         N NUMB  012BH
TIMER_DELAY_BASE                        N NUMB  006DH
NOP6                                    N NUMB  0069H
NOP19                                   N NUMB  005CH
NOP28                                   N NUMB  0053H
NOP40                                   N NUMB  0047H
NOP300                                  N NUMB  0037H
_NPAIRS_L_TEMP                          N NUMB  003AH
_TEMP1                                  N NUMB  0034H
_LOW_H                                  N NUMB  0032H
_FORM_L                                 N NUMB  0047H
FREQL4                                  N NUMB  0067H
FREQH1                                  N NUMB  0060H
NINDEXCOUNT_H                           N NUMB  0042H
P_INDEX                                 N NUMB  0034H
NLOWLEVEL_L                             N NUMB  002BH
_CRC_CODE                               N NUMB  0028H
DELAYCT0                                N NUMB  0023H
_DELTA_REC_HIGH_L_                      N NUMB  0032H
BPT12                                   N NUMB  0002H
C                                       N NUMB  0001H
PT2MR                                   N NUMB  001CH
PWMCON                                  N NUMB  000BH
RECL_DATA_OUT                           N NUMB  0841H
ET_XCAL_CRC_LOOP                        N NUMB  06A4H
TIANJIA004                              N NUMB  04BFH
TIANJIA003                              N NUMB  04B8H
TIANJIA005                              N NUMB  04ACH
TIANJIA002                              N NUMB  049FH
TIANJIA001                              N NUMB  0498H
TIANJIA000                              N NUMB  047DH
NOP7                                    N NUMB  0068H
NOP18                                   N NUMB  005DH
NOP29                                   N NUMB  0052H
NOP35                                   N NUMB  004CH
NOP41                                   N NUMB  0046H
NOP4500                                 N NUMB  0026H
NOP5000                                 N NUMB  0025H
NOP20000                                N NUMB  001AH
TIANJIA_TEMP2                           N NUMB  002DH
TIANJIACODE_2                           N NUMB  0024H
FREQL3                                  N NUMB  0065H
N_CRC                                   N NUMB  004BH
L_DATA                                  N NUMB  0002H
ISCMDEND                                N NUMB  0005H
ISERROR                                 N NUMB  0000H
ADDRESS_PARTINDEXCOUNT                    N NUMB  0050H
BPT13                                   N NUMB  0003H
DUTY_SEL0                               N NUMB  0005H
CAPIE                                   N NUMB  0002H
I2C_RW                                  N NUMB  0004H
TCCONA                                  N NUMB  000EH
FRS0                                    N NUMB  0002H
